ccopy_reg
_reconstructor
p1
(cpytrie
StringTrie
p2
c__builtin__
object
p3
NtRp4
(dp5
S'_root'
p6
g1
(cpytrie
Node
p7
g3
NtRp8
(cpytrie
NULL
p9
(dp10
S' '
g1
(g7
g3
NtRp11
(g9
(dp12
S'|'
g1
(g7
g3
NtRp13
(g9
(dp14
S'a'
g1
(g7
g3
NtRp15
(I9444
(dp16
tbsS'c'
g1
(g7
g3
NtRp17
(I2986
(dp18
tbsS'b'
g1
(g7
g3
NtRp19
(I3696
(dp20
tbsS'e'
g1
(g7
g3
NtRp21
(I1132
(dp22
tbsS'd'
g1
(g7
g3
NtRp23
(I2446
(dp24
tbsS'g'
g1
(g7
g3
NtRp25
(I2220
(dp26
tbsS'f'
g1
(g7
g3
NtRp27
(I2818
(dp28
tbsS'i'
g1
(g7
g3
NtRp29
(I4330
(dp30
tbsS'h'
g1
(g7
g3
NtRp31
(I5214
(dp32
tbsS'k'
g1
(g7
g3
NtRp33
(I662
(dp34
tbsS'j'
g1
(g7
g3
NtRp35
(I278
(dp36
tbsS'm'
g1
(g7
g3
NtRp37
(I2736
(dp38
tbsS'l'
g1
(g7
g3
NtRp39
(I2232
(dp40
tbsS'o'
g1
(g7
g3
NtRp41
(I3916
(dp42
tbsS'n'
g1
(g7
g3
NtRp43
(I1558
(dp44
tbsS'q'
g1
(g7
g3
NtRp45
(I202
(dp46
tbsS'p'
g1
(g7
g3
NtRp47
(I1400
(dp48
tbsS's'
g1
(g7
g3
NtRp49
(I6480
(dp50
tbsS'r'
g1
(g7
g3
NtRp51
(I1366
(dp52
tbsS'u'
g1
(g7
g3
NtRp53
(I886
(dp54
tbsS't'
g1
(g7
g3
NtRp55
(I14066
(dp56
tbsS'w'
g1
(g7
g3
NtRp57
(I6766
(dp58
tbsS'v'
g1
(g7
g3
NtRp59
(I272
(dp60
tbsS'y'
g1
(g7
g3
NtRp61
(I1336
(dp62
tbsS'z'
g1
(g7
g3
NtRp63
(I12
(dp64
tbstbstbsS"'"
g1
(g7
g3
NtRp65
(g9
(dp66
S'|'
g1
(g7
g3
NtRp67
(g9
(dp68
S'c'
g1
(g7
g3
NtRp69
(I4
(dp70
tbsS'd'
g1
(g7
g3
NtRp71
(I4
(dp72
tbsS'm'
g1
(g7
g3
NtRp73
(I58
(dp74
tbsS'l'
g1
(g7
g3
NtRp75
(I30
(dp76
tbsS's'
g1
(g7
g3
NtRp77
(I174
(dp78
tbsS'r'
g1
(g7
g3
NtRp79
(I10
(dp80
tbsS't'
g1
(g7
g3
NtRp81
(I168
(dp82
tbsS'v'
g1
(g7
g3
NtRp83
(I14
(dp84
tbstbstbsS'a'
g1
(g7
g3
NtRp85
(g9
(dp86
S'|'
g1
(g7
g3
NtRp87
(g9
(dp88
S'a'
g1
(g7
g3
NtRp89
(I4
(dp90
tbsS'c'
g1
(g7
g3
NtRp91
(I606
(dp92
tbsS'b'
g1
(g7
g3
NtRp93
(I194
(dp94
tbsS'd'
g1
(g7
g3
NtRp95
(I1506
(dp96
tbsS'g'
g1
(g7
g3
NtRp97
(I404
(dp98
tbsS'f'
g1
(g7
g3
NtRp99
(I282
(dp100
tbsS'i'
g1
(g7
g3
NtRp101
(I1488
(dp102
tbsS'h'
g1
(g7
g3
NtRp103
(I24
(dp104
tbsS'k'
g1
(g7
g3
NtRp105
(I300
(dp106
tbsS'j'
g1
(g7
g3
NtRp107
(I4
(dp108
tbsS'm'
g1
(g7
g3
NtRp109
(I598
(dp110
tbsS'l'
g1
(g7
g3
NtRp111
(I1808
(dp112
tbsS'n'
g1
(g7
g3
NtRp113
(I5956
(dp114
tbsS'p'
g1
(g7
g3
NtRp115
(I288
(dp116
tbsS's'
g1
(g7
g3
NtRp117
(I2908
(dp118
tbsS'r'
g1
(g7
g3
NtRp119
(I2782
(dp120
tbsS'u'
g1
(g7
g3
NtRp121
(I276
(dp122
tbsS't'
g1
(g7
g3
NtRp123
(I2498
(dp124
tbsS'w'
g1
(g7
g3
NtRp125
(I404
(dp126
tbsS'v'
g1
(g7
g3
NtRp127
(I658
(dp128
tbsS'y'
g1
(g7
g3
NtRp129
(I670
(dp130
tbsS'x'
g1
(g7
g3
NtRp131
(I56
(dp132
tbsS'z'
g1
(g7
g3
NtRp133
(I24
(dp134
tbstbstbsS'c'
g1
(g7
g3
NtRp135
(g9
(dp136
S'|'
g1
(g7
g3
NtRp137
(g9
(dp138
S'a'
g1
(g7
g3
NtRp139
(I1500
(dp140
tbsS'c'
g1
(g7
g3
NtRp141
(I12
(dp142
tbsS'e'
g1
(g7
g3
NtRp143
(I762
(dp144
tbsS'i'
g1
(g7
g3
NtRp145
(I242
(dp146
tbsS'h'
g1
(g7
g3
NtRp147
(I1156
(dp148
tbsS'k'
g1
(g7
g3
NtRp149
(I740
(dp150
tbsS'l'
g1
(g7
g3
NtRp151
(I328
(dp152
tbsS'o'
g1
(g7
g3
NtRp153
(I1134
(dp154
tbsS'r'
g1
(g7
g3
NtRp155
(I756
(dp156
tbsS'u'
g1
(g7
g3
NtRp157
(I110
(dp158
tbsS't'
g1
(g7
g3
NtRp159
(I126
(dp160
tbsS'y'
g1
(g7
g3
NtRp161
(I40
(dp162
tbstbstbsS'b'
g1
(g7
g3
NtRp163
(g9
(dp164
S'|'
g1
(g7
g3
NtRp165
(g9
(dp166
S'a'
g1
(g7
g3
NtRp167
(I496
(dp168
tbsS'b'
g1
(g7
g3
NtRp169
(I18
(dp170
tbsS'e'
g1
(g7
g3
NtRp171
(I1448
(dp172
tbsS'i'
g1
(g7
g3
NtRp173
(I222
(dp174
tbsS'j'
g1
(g7
g3
NtRp175
(I2
(dp176
tbsS'l'
g1
(g7
g3
NtRp177
(I338
(dp178
tbsS'o'
g1
(g7
g3
NtRp179
(I350
(dp180
tbsS's'
g1
(g7
g3
NtRp181
(I2
(dp182
tbsS'r'
g1
(g7
g3
NtRp183
(I474
(dp184
tbsS'u'
g1
(g7
g3
NtRp185
(I712
(dp186
tbsS't'
g1
(g7
g3
NtRp187
(I2
(dp188
tbsS'y'
g1
(g7
g3
NtRp189
(I238
(dp190
tbstbstbsS'e'
g1
(g7
g3
NtRp191
(g9
(dp192
S'|'
g1
(g7
g3
NtRp193
(g9
(dp194
S"'"
g1
(g7
g3
NtRp195
(I18
(dp196
tbsS'a'
g1
(g7
g3
NtRp197
(I2210
(dp198
tbsS'c'
g1
(g7
g3
NtRp199
(I794
(dp200
tbsS'b'
g1
(g7
g3
NtRp201
(I6
(dp202
tbsS'e'
g1
(g7
g3
NtRp203
(I1472
(dp204
tbsS'd'
g1
(g7
g3
NtRp205
(I3926
(dp206
tbsS'g'
g1
(g7
g3
NtRp207
(I158
(dp208
tbsS'f'
g1
(g7
g3
NtRp209
(I306
(dp210
tbsS'i'
g1
(g7
g3
NtRp211
(I324
(dp212
tbsS'h'
g1
(g7
g3
NtRp213
(I56
(dp214
tbsS'k'
g1
(g7
g3
NtRp215
(I32
(dp216
tbsS'j'
g1
(g7
g3
NtRp217
(I4
(dp218
tbsS'm'
g1
(g7
g3
NtRp219
(I906
(dp220
tbsS'l'
g1
(g7
g3
NtRp221
(I1222
(dp222
tbsS'o'
g1
(g7
g3
NtRp223
(I130
(dp224
tbsS'n'
g1
(g7
g3
NtRp225
(I2286
(dp226
tbsS'q'
g1
(g7
g3
NtRp227
(I6
(dp228
tbsS'p'
g1
(g7
g3
NtRp229
(I440
(dp230
tbsS's'
g1
(g7
g3
NtRp231
(I1920
(dp232
tbsS'r'
g1
(g7
g3
NtRp233
(I5064
(dp234
tbsS'u'
g1
(g7
g3
NtRp235
(I6
(dp236
tbsS't'
g1
(g7
g3
NtRp237
(I884
(dp238
tbsS'w'
g1
(g7
g3
NtRp239
(I278
(dp240
tbsS'v'
g1
(g7
g3
NtRp241
(I534
(dp242
tbsS'y'
g1
(g7
g3
NtRp243
(I1122
(dp244
tbsS'x'
g1
(g7
g3
NtRp245
(I172
(dp246
tbsS'z'
g1
(g7
g3
NtRp247
(I2
(dp248
tbstbstbsS'd'
g1
(g7
g3
NtRp249
(g9
(dp250
S'|'
g1
(g7
g3
NtRp251
(g9
(dp252
S"'"
g1
(g7
g3
NtRp253
(I6
(dp254
tbsS'a'
g1
(g7
g3
NtRp255
(I304
(dp256
tbsS'c'
g1
(g7
g3
NtRp257
(I14
(dp258
tbsS'b'
g1
(g7
g3
NtRp259
(I46
(dp260
tbsS'e'
g1
(g7
g3
NtRp261
(I1232
(dp262
tbsS'd'
g1
(g7
g3
NtRp263
(I130
(dp264
tbsS'g'
g1
(g7
g3
NtRp265
(I40
(dp266
tbsS'f'
g1
(g7
g3
NtRp267
(I24
(dp268
tbsS'i'
g1
(g7
g3
NtRp269
(I516
(dp270
tbsS'h'
g1
(g7
g3
NtRp271
(I6
(dp272
tbsS'k'
g1
(g7
g3
NtRp273
(I2
(dp274
tbsS'm'
g1
(g7
g3
NtRp275
(I376
(dp276
tbsS'l'
g1
(g7
g3
NtRp277
(I250
(dp278
tbsS'o'
g1
(g7
g3
NtRp279
(I1470
(dp280
tbsS'n'
g1
(g7
g3
NtRp281
(I38
(dp282
tbsS's'
g1
(g7
g3
NtRp283
(I334
(dp284
tbsS'r'
g1
(g7
g3
NtRp285
(I178
(dp286
tbsS'u'
g1
(g7
g3
NtRp287
(I34
(dp288
tbsS't'
g1
(g7
g3
NtRp289
(I2
(dp290
tbsS'w'
g1
(g7
g3
NtRp291
(I8
(dp292
tbsS'v'
g1
(g7
g3
NtRp293
(I14
(dp294
tbsS'y'
g1
(g7
g3
NtRp295
(I114
(dp296
tbstbstbsS'g'
g1
(g7
g3
NtRp297
(g9
(dp298
S'|'
g1
(g7
g3
NtRp299
(g9
(dp300
S'a'
g1
(g7
g3
NtRp301
(I432
(dp302
tbsS'e'
g1
(g7
g3
NtRp303
(I748
(dp304
tbsS'd'
g1
(g7
g3
NtRp305
(I4
(dp306
tbsS'g'
g1
(g7
g3
NtRp307
(I70
(dp308
tbsS'f'
g1
(g7
g3
NtRp309
(I2
(dp310
tbsS'i'
g1
(g7
g3
NtRp311
(I374
(dp312
tbsS'h'
g1
(g7
g3
NtRp313
(I824
(dp314
tbsS'l'
g1
(g7
g3
NtRp315
(I158
(dp316
tbsS'o'
g1
(g7
g3
NtRp317
(I566
(dp318
tbsS'n'
g1
(g7
g3
NtRp319
(I8
(dp320
tbsS's'
g1
(g7
g3
NtRp321
(I142
(dp322
tbsS'r'
g1
(g7
g3
NtRp323
(I870
(dp324
tbsS'u'
g1
(g7
g3
NtRp325
(I70
(dp326
tbsS't'
g1
(g7
g3
NtRp327
(I6
(dp328
tbsS'y'
g1
(g7
g3
NtRp329
(I10
(dp330
tbstbstbsS'f'
g1
(g7
g3
NtRp331
(g9
(dp332
S'|'
g1
(g7
g3
NtRp333
(g9
(dp334
S'a'
g1
(g7
g3
NtRp335
(I370
(dp336
tbsS'e'
g1
(g7
g3
NtRp337
(I428
(dp338
tbsS"'"
g1
(g7
g3
NtRp339
(I2
(dp340
tbsS'f'
g1
(g7
g3
NtRp341
(I170
(dp342
tbsS'i'
g1
(g7
g3
NtRp343
(I426
(dp344
tbsS'l'
g1
(g7
g3
NtRp345
(I226
(dp346
tbsS'o'
g1
(g7
g3
NtRp347
(I1276
(dp348
tbsS's'
g1
(g7
g3
NtRp349
(I2
(dp350
tbsS'r'
g1
(g7
g3
NtRp351
(I536
(dp352
tbsS'u'
g1
(g7
g3
NtRp353
(I360
(dp354
tbsS't'
g1
(g7
g3
NtRp355
(I310
(dp356
tbsS'w'
g1
(g7
g3
NtRp357
(I2
(dp358
tbstbstbsS'i'
g1
(g7
g3
NtRp359
(g9
(dp360
S'|'
g1
(g7
g3
NtRp361
(g9
(dp362
S'a'
g1
(g7
g3
NtRp363
(I64
(dp364
tbsS'c'
g1
(g7
g3
NtRp365
(I650
(dp366
tbsS'b'
g1
(g7
g3
NtRp367
(I94
(dp368
tbsS'e'
g1
(g7
g3
NtRp369
(I770
(dp370
tbsS'd'
g1
(g7
g3
NtRp371
(I1274
(dp372
tbsS'g'
g1
(g7
g3
NtRp373
(I560
(dp374
tbsS'f'
g1
(g7
g3
NtRp375
(I462
(dp376
tbsS'k'
g1
(g7
g3
NtRp377
(I142
(dp378
tbsS'm'
g1
(g7
g3
NtRp379
(I722
(dp380
tbsS'l'
g1
(g7
g3
NtRp381
(I1176
(dp382
tbsS'o'
g1
(g7
g3
NtRp383
(I520
(dp384
tbsS'n'
g1
(g7
g3
NtRp385
(I4644
(dp386
tbsS'p'
g1
(g7
g3
NtRp387
(I70
(dp388
tbsS's'
g1
(g7
g3
NtRp389
(I1806
(dp390
tbsS'r'
g1
(g7
g3
NtRp391
(I838
(dp392
tbsS't'
g1
(g7
g3
NtRp393
(I2650
(dp394
tbsS'v'
g1
(g7
g3
NtRp395
(I310
(dp396
tbsS"'"
g1
(g7
g3
NtRp397
(I102
(dp398
tbsS'x'
g1
(g7
g3
NtRp399
(I4
(dp400
tbsS'z'
g1
(g7
g3
NtRp401
(I120
(dp402
tbstbstbsS'h'
g1
(g7
g3
NtRp403
(g9
(dp404
S'|'
g1
(g7
g3
NtRp405
(g9
(dp406
S'a'
g1
(g7
g3
NtRp407
(I2820
(dp408
tbsS'e'
g1
(g7
g3
NtRp409
(I12624
(dp410
tbsS"'"
g1
(g7
g3
NtRp411
(I10
(dp412
tbsS'f'
g1
(g7
g3
NtRp413
(I4
(dp414
tbsS'i'
g1
(g7
g3
NtRp415
(I2136
(dp416
tbsS'k'
g1
(g7
g3
NtRp417
(I66
(dp418
tbsS'l'
g1
(g7
g3
NtRp419
(I10
(dp420
tbsS'o'
g1
(g7
g3
NtRp421
(I1302
(dp422
tbsS's'
g1
(g7
g3
NtRp423
(I34
(dp424
tbsS'r'
g1
(g7
g3
NtRp425
(I268
(dp426
tbsS'u'
g1
(g7
g3
NtRp427
(I130
(dp428
tbsS't'
g1
(g7
g3
NtRp429
(I542
(dp430
tbsS'w'
g1
(g7
g3
NtRp431
(I4
(dp432
tbsS'y'
g1
(g7
g3
NtRp433
(I820
(dp434
tbstbstbsS'k'
g1
(g7
g3
NtRp435
(g9
(dp436
S'|'
g1
(g7
g3
NtRp437
(g9
(dp438
S'a'
g1
(g7
g3
NtRp439
(I124
(dp440
tbsS'e'
g1
(g7
g3
NtRp441
(I1450
(dp442
tbsS'f'
g1
(g7
g3
NtRp443
(I20
(dp444
tbsS'i'
g1
(g7
g3
NtRp445
(I532
(dp446
tbsS'k'
g1
(g7
g3
NtRp447
(I4
(dp448
tbsS'm'
g1
(g7
g3
NtRp449
(I14
(dp450
tbsS'l'
g1
(g7
g3
NtRp451
(I52
(dp452
tbsS'o'
g1
(g7
g3
NtRp453
(I2
(dp454
tbsS'n'
g1
(g7
g3
NtRp455
(I218
(dp456
tbsS's'
g1
(g7
g3
NtRp457
(I74
(dp458
tbsS'w'
g1
(g7
g3
NtRp459
(I6
(dp460
tbsS'y'
g1
(g7
g3
NtRp461
(I40
(dp462
tbstbstbsS'j'
g1
(g7
g3
NtRp463
(g9
(dp464
S'|'
g1
(g7
g3
NtRp465
(g9
(dp466
S'a'
g1
(g7
g3
NtRp467
(I16
(dp468
tbsS'u'
g1
(g7
g3
NtRp469
(I120
(dp470
tbsS'e'
g1
(g7
g3
NtRp471
(I16
(dp472
tbsS'o'
g1
(g7
g3
NtRp473
(I146
(dp474
tbstbstbsS'm'
g1
(g7
g3
NtRp475
(g9
(dp476
S'|'
g1
(g7
g3
NtRp477
(g9
(dp478
S'a'
g1
(g7
g3
NtRp479
(I1374
(dp480
tbsS'b'
g1
(g7
g3
NtRp481
(I112
(dp482
tbsS'e'
g1
(g7
g3
NtRp483
(I1748
(dp484
tbsS"'"
g1
(g7
g3
NtRp485
(I2
(dp486
tbsS'f'
g1
(g7
g3
NtRp487
(I22
(dp488
tbsS'i'
g1
(g7
g3
NtRp489
(I418
(dp490
tbsS'h'
g1
(g7
g3
NtRp491
(I6
(dp492
tbsS'm'
g1
(g7
g3
NtRp493
(I58
(dp494
tbsS'l'
g1
(g7
g3
NtRp495
(I16
(dp496
tbsS'o'
g1
(g7
g3
NtRp497
(I502
(dp498
tbsS'n'
g1
(g7
g3
NtRp499
(I8
(dp500
tbsS'p'
g1
(g7
g3
NtRp501
(I116
(dp502
tbsS's'
g1
(g7
g3
NtRp503
(I194
(dp504
tbsS'r'
g1
(g7
g3
NtRp505
(I24
(dp506
tbsS'u'
g1
(g7
g3
NtRp507
(I322
(dp508
tbsS'y'
g1
(g7
g3
NtRp509
(I436
(dp510
tbstbstbsS'l'
g1
(g7
g3
NtRp511
(g9
(dp512
S'|'
g1
(g7
g3
NtRp513
(g9
(dp514
S"'"
g1
(g7
g3
NtRp515
(I2
(dp516
tbsS'a'
g1
(g7
g3
NtRp517
(I734
(dp518
tbsS'c'
g1
(g7
g3
NtRp519
(I28
(dp520
tbsS'b'
g1
(g7
g3
NtRp521
(I4
(dp522
tbsS'e'
g1
(g7
g3
NtRp523
(I1984
(dp524
tbsS'd'
g1
(g7
g3
NtRp525
(I1236
(dp526
tbsS'g'
g1
(g7
g3
NtRp527
(I6
(dp528
tbsS'f'
g1
(g7
g3
NtRp529
(I180
(dp530
tbsS'i'
g1
(g7
g3
NtRp531
(I1472
(dp532
tbsS'k'
g1
(g7
g3
NtRp533
(I230
(dp534
tbsS'm'
g1
(g7
g3
NtRp535
(I20
(dp536
tbsS'l'
g1
(g7
g3
NtRp537
(I2208
(dp538
tbsS'o'
g1
(g7
g3
NtRp539
(I1212
(dp540
tbsS'n'
g1
(g7
g3
NtRp541
(I2
(dp542
tbsS'p'
g1
(g7
g3
NtRp543
(I104
(dp544
tbsS's'
g1
(g7
g3
NtRp545
(I148
(dp546
tbsS'r'
g1
(g7
g3
NtRp547
(I6
(dp548
tbsS'u'
g1
(g7
g3
NtRp549
(I98
(dp550
tbsS't'
g1
(g7
g3
NtRp551
(I124
(dp552
tbsS'w'
g1
(g7
g3
NtRp553
(I42
(dp554
tbsS'v'
g1
(g7
g3
NtRp555
(I116
(dp556
tbsS'y'
g1
(g7
g3
NtRp557
(I1178
(dp558
tbstbstbsS'o'
g1
(g7
g3
NtRp559
(g9
(dp560
S'|'
g1
(g7
g3
NtRp561
(g9
(dp562
S"'"
g1
(g7
g3
NtRp563
(I10
(dp564
tbsS'a'
g1
(g7
g3
NtRp565
(I208
(dp566
tbsS'c'
g1
(g7
g3
NtRp567
(I100
(dp568
tbsS'b'
g1
(g7
g3
NtRp569
(I56
(dp570
tbsS'e'
g1
(g7
g3
NtRp571
(I116
(dp572
tbsS'd'
g1
(g7
g3
NtRp573
(I774
(dp574
tbsS'g'
g1
(g7
g3
NtRp575
(I98
(dp576
tbsS'f'
g1
(g7
g3
NtRp577
(I1788
(dp578
tbsS'i'
g1
(g7
g3
NtRp579
(I264
(dp580
tbsS'h'
g1
(g7
g3
NtRp581
(I78
(dp582
tbsS'k'
g1
(g7
g3
NtRp583
(I368
(dp584
tbsS'm'
g1
(g7
g3
NtRp585
(I1052
(dp586
tbsS'l'
g1
(g7
g3
NtRp587
(I574
(dp588
tbsS'o'
g1
(g7
g3
NtRp589
(I1556
(dp590
tbsS'n'
g1
(g7
g3
NtRp591
(I2582
(dp592
tbsS'q'
g1
(g7
g3
NtRp593
(I14
(dp594
tbsS'p'
g1
(g7
g3
NtRp595
(I378
(dp596
tbsS's'
g1
(g7
g3
NtRp597
(I346
(dp598
tbsS'r'
g1
(g7
g3
NtRp599
(I2716
(dp600
tbsS'u'
g1
(g7
g3
NtRp601
(I3580
(dp602
tbsS't'
g1
(g7
g3
NtRp603
(I1984
(dp604
tbsS'w'
g1
(g7
g3
NtRp605
(I1900
(dp606
tbsS'v'
g1
(g7
g3
NtRp607
(I342
(dp608
tbsS'y'
g1
(g7
g3
NtRp609
(I64
(dp610
tbsS'x'
g1
(g7
g3
NtRp611
(I12
(dp612
tbsS'z'
g1
(g7
g3
NtRp613
(I324
(dp614
tbstbstbsS'n'
g1
(g7
g3
NtRp615
(g9
(dp616
S'|'
g1
(g7
g3
NtRp617
(g9
(dp618
S"'"
g1
(g7
g3
NtRp619
(I200
(dp620
tbsS'a'
g1
(g7
g3
NtRp621
(I114
(dp622
tbsS'c'
g1
(g7
g3
NtRp623
(I398
(dp624
tbsS'b'
g1
(g7
g3
NtRp625
(I6
(dp626
tbsS'e'
g1
(g7
g3
NtRp627
(I1534
(dp628
tbsS'd'
g1
(g7
g3
NtRp629
(I4638
(dp630
tbsS'g'
g1
(g7
g3
NtRp631
(I2182
(dp632
tbsS'f'
g1
(g7
g3
NtRp633
(I22
(dp634
tbsS'i'
g1
(g7
g3
NtRp635
(I312
(dp636
tbsS'h'
g1
(g7
g3
NtRp637
(I26
(dp638
tbsS'k'
g1
(g7
g3
NtRp639
(I390
(dp640
tbsS'j'
g1
(g7
g3
NtRp641
(I10
(dp642
tbsS'l'
g1
(g7
g3
NtRp643
(I180
(dp644
tbsS'o'
g1
(g7
g3
NtRp645
(I1400
(dp646
tbsS'n'
g1
(g7
g3
NtRp647
(I162
(dp648
tbsS'q'
g1
(g7
g3
NtRp649
(I28
(dp650
tbsS's'
g1
(g7
g3
NtRp651
(I640
(dp652
tbsS'r'
g1
(g7
g3
NtRp653
(I26
(dp654
tbsS'u'
g1
(g7
g3
NtRp655
(I70
(dp656
tbsS't'
g1
(g7
g3
NtRp657
(I1162
(dp658
tbsS'w'
g1
(g7
g3
NtRp659
(I6
(dp660
tbsS'v'
g1
(g7
g3
NtRp661
(I10
(dp662
tbsS'y'
g1
(g7
g3
NtRp663
(I290
(dp664
tbsS'x'
g1
(g7
g3
NtRp665
(I30
(dp666
tbstbstbsS'q'
g1
(g7
g3
NtRp667
(g9
(dp668
S'|'
g1
(g7
g3
NtRp669
(g9
(dp670
S'u'
g1
(g7
g3
NtRp671
(I252
(dp672
tbstbstbsS'p'
g1
(g7
g3
NtRp673
(g9
(dp674
S'|'
g1
(g7
g3
NtRp675
(g9
(dp676
S'a'
g1
(g7
g3
NtRp677
(I352
(dp678
tbsS'b'
g1
(g7
g3
NtRp679
(I16
(dp680
tbsS'e'
g1
(g7
g3
NtRp681
(I662
(dp682
tbsS"'"
g1
(g7
g3
NtRp683
(I2
(dp684
tbsS'i'
g1
(g7
g3
NtRp685
(I198
(dp686
tbsS'h'
g1
(g7
g3
NtRp687
(I16
(dp688
tbsS'l'
g1
(g7
g3
NtRp689
(I480
(dp690
tbsS'o'
g1
(g7
g3
NtRp691
(I512
(dp692
tbsS'p'
g1
(g7
g3
NtRp693
(I306
(dp694
tbsS's'
g1
(g7
g3
NtRp695
(I72
(dp696
tbsS'r'
g1
(g7
g3
NtRp697
(I374
(dp698
tbsS'u'
g1
(g7
g3
NtRp699
(I134
(dp700
tbsS't'
g1
(g7
g3
NtRp701
(I106
(dp702
tbsS'w'
g1
(g7
g3
NtRp703
(I2
(dp704
tbsS'y'
g1
(g7
g3
NtRp705
(I60
(dp706
tbstbstbsS's'
g1
(g7
g3
NtRp707
(g9
(dp708
S'|'
g1
(g7
g3
NtRp709
(g9
(dp710
S'a'
g1
(g7
g3
NtRp711
(I1188
(dp712
tbsS'c'
g1
(g7
g3
NtRp713
(I568
(dp714
tbsS'b'
g1
(g7
g3
NtRp715
(I4
(dp716
tbsS'e'
g1
(g7
g3
NtRp717
(I1652
(dp718
tbsS'g'
g1
(g7
g3
NtRp719
(I2
(dp720
tbsS"'"
g1
(g7
g3
NtRp721
(I2
(dp722
tbsS'f'
g1
(g7
g3
NtRp723
(I8
(dp724
tbsS'i'
g1
(g7
g3
NtRp725
(I478
(dp726
tbsS'h'
g1
(g7
g3
NtRp727
(I1720
(dp728
tbsS'k'
g1
(g7
g3
NtRp729
(I392
(dp730
tbsS'm'
g1
(g7
g3
NtRp731
(I112
(dp732
tbsS'l'
g1
(g7
g3
NtRp733
(I190
(dp734
tbsS'o'
g1
(g7
g3
NtRp735
(I1158
(dp736
tbsS'n'
g1
(g7
g3
NtRp737
(I50
(dp738
tbsS'q'
g1
(g7
g3
NtRp739
(I12
(dp740
tbsS'p'
g1
(g7
g3
NtRp741
(I228
(dp742
tbsS's'
g1
(g7
g3
NtRp743
(I462
(dp744
tbsS'u'
g1
(g7
g3
NtRp745
(I352
(dp746
tbsS't'
g1
(g7
g3
NtRp747
(I2168
(dp748
tbsS'w'
g1
(g7
g3
NtRp749
(I244
(dp750
tbsS'y'
g1
(g7
g3
NtRp751
(I28
(dp752
tbstbstbsS'r'
g1
(g7
g3
NtRp753
(g9
(dp754
S'|'
g1
(g7
g3
NtRp755
(g9
(dp756
S"'"
g1
(g7
g3
NtRp757
(I20
(dp758
tbsS'a'
g1
(g7
g3
NtRp759
(I1118
(dp760
tbsS'c'
g1
(g7
g3
NtRp761
(I100
(dp762
tbsS'b'
g1
(g7
g3
NtRp763
(I16
(dp764
tbsS'e'
g1
(g7
g3
NtRp765
(I4696
(dp766
tbsS'd'
g1
(g7
g3
NtRp767
(I518
(dp768
tbsS'g'
g1
(g7
g3
NtRp769
(I46
(dp770
tbsS'f'
g1
(g7
g3
NtRp771
(I88
(dp772
tbsS'i'
g1
(g7
g3
NtRp773
(I1012
(dp774
tbsS'h'
g1
(g7
g3
NtRp775
(I30
(dp776
tbsS'k'
g1
(g7
g3
NtRp777
(I208
(dp778
tbsS'm'
g1
(g7
g3
NtRp779
(I242
(dp780
tbsS'l'
g1
(g7
g3
NtRp781
(I318
(dp782
tbsS'o'
g1
(g7
g3
NtRp783
(I2676
(dp784
tbsS'n'
g1
(g7
g3
NtRp785
(I370
(dp786
tbsS'p'
g1
(g7
g3
NtRp787
(I118
(dp788
tbsS's'
g1
(g7
g3
NtRp789
(I616
(dp790
tbsS'r'
g1
(g7
g3
NtRp791
(I340
(dp792
tbsS'u'
g1
(g7
g3
NtRp793
(I298
(dp794
tbsS't'
g1
(g7
g3
NtRp795
(I570
(dp796
tbsS'w'
g1
(g7
g3
NtRp797
(I30
(dp798
tbsS'v'
g1
(g7
g3
NtRp799
(I22
(dp800
tbsS'y'
g1
(g7
g3
NtRp801
(I706
(dp802
tbstbstbsS'u'
g1
(g7
g3
NtRp803
(g9
(dp804
S'|'
g1
(g7
g3
NtRp805
(g9
(dp806
S'a'
g1
(g7
g3
NtRp807
(I78
(dp808
tbsS'c'
g1
(g7
g3
NtRp809
(I226
(dp810
tbsS'b'
g1
(g7
g3
NtRp811
(I42
(dp812
tbsS'e'
g1
(g7
g3
NtRp813
(I220
(dp814
tbsS'd'
g1
(g7
g3
NtRp815
(I94
(dp816
tbsS'g'
g1
(g7
g3
NtRp817
(I486
(dp818
tbsS'f'
g1
(g7
g3
NtRp819
(I68
(dp820
tbsS'i'
g1
(g7
g3
NtRp821
(I198
(dp822
tbsS'm'
g1
(g7
g3
NtRp823
(I96
(dp824
tbsS'l'
g1
(g7
g3
NtRp825
(I1036
(dp826
tbsS'n'
g1
(g7
g3
NtRp827
(I1048
(dp828
tbsS'p'
g1
(g7
g3
NtRp829
(I470
(dp830
tbsS's'
g1
(g7
g3
NtRp831
(I820
(dp832
tbsS'r'
g1
(g7
g3
NtRp833
(I942
(dp834
tbsS't'
g1
(g7
g3
NtRp835
(I1278
(dp836
tbsS"'"
g1
(g7
g3
NtRp837
(I12
(dp838
tbsS'z'
g1
(g7
g3
NtRp839
(I14
(dp840
tbstbstbsS't'
g1
(g7
g3
NtRp841
(g9
(dp842
S'|'
g1
(g7
g3
NtRp843
(g9
(dp844
S'a'
g1
(g7
g3
NtRp845
(I448
(dp846
tbsS'c'
g1
(g7
g3
NtRp847
(I360
(dp848
tbsS'e'
g1
(g7
g3
NtRp849
(I1554
(dp850
tbsS"'"
g1
(g7
g3
NtRp851
(I28
(dp852
tbsS'f'
g1
(g7
g3
NtRp853
(I26
(dp854
tbsS'i'
g1
(g7
g3
NtRp855
(I1088
(dp856
tbsS'h'
g1
(g7
g3
NtRp857
(I12048
(dp858
tbsS'm'
g1
(g7
g3
NtRp859
(I2
(dp860
tbsS'l'
g1
(g7
g3
NtRp861
(I530
(dp862
tbsS'o'
g1
(g7
g3
NtRp863
(I3328
(dp864
tbsS'n'
g1
(g7
g3
NtRp865
(I6
(dp866
tbsS's'
g1
(g7
g3
NtRp867
(I288
(dp868
tbsS'r'
g1
(g7
g3
NtRp869
(I808
(dp870
tbsS'u'
g1
(g7
g3
NtRp871
(I286
(dp872
tbsS't'
g1
(g7
g3
NtRp873
(I588
(dp874
tbsS'w'
g1
(g7
g3
NtRp875
(I86
(dp876
tbsS'y'
g1
(g7
g3
NtRp877
(I316
(dp878
tbstbstbsS'w'
g1
(g7
g3
NtRp879
(g9
(dp880
S'|'
g1
(g7
g3
NtRp881
(g9
(dp882
S'a'
g1
(g7
g3
NtRp883
(I1916
(dp884
tbsS'e'
g1
(g7
g3
NtRp885
(I1548
(dp886
tbsS'd'
g1
(g7
g3
NtRp887
(I10
(dp888
tbsS"'"
g1
(g7
g3
NtRp889
(I14
(dp890
tbsS'f'
g1
(g7
g3
NtRp891
(I18
(dp892
tbsS'i'
g1
(g7
g3
NtRp893
(I1878
(dp894
tbsS'h'
g1
(g7
g3
NtRp895
(I1368
(dp896
tbsS'k'
g1
(g7
g3
NtRp897
(I4
(dp898
tbsS'l'
g1
(g7
g3
NtRp899
(I48
(dp900
tbsS'o'
g1
(g7
g3
NtRp901
(I1048
(dp902
tbsS'n'
g1
(g7
g3
NtRp903
(I312
(dp904
tbsS's'
g1
(g7
g3
NtRp905
(I78
(dp906
tbsS'r'
g1
(g7
g3
NtRp907
(I24
(dp908
tbsS'u'
g1
(g7
g3
NtRp909
(I4
(dp910
tbstbstbsS'v'
g1
(g7
g3
NtRp911
(g9
(dp912
S'|'
g1
(g7
g3
NtRp913
(g9
(dp914
S'i'
g1
(g7
g3
NtRp915
(I124
(dp916
tbsS'a'
g1
(g7
g3
NtRp917
(I8
(dp918
tbsS'e'
g1
(g7
g3
NtRp919
(I2066
(dp920
tbsS'y'
g1
(g7
g3
NtRp921
(I18
(dp922
tbsS'o'
g1
(g7
g3
NtRp923
(I76
(dp924
tbstbstbsS'y'
g1
(g7
g3
NtRp925
(g9
(dp926
S'|'
g1
(g7
g3
NtRp927
(g9
(dp928
S'a'
g1
(g7
g3
NtRp929
(I20
(dp930
tbsS'c'
g1
(g7
g3
NtRp931
(I30
(dp932
tbsS'b'
g1
(g7
g3
NtRp933
(I8
(dp934
tbsS'e'
g1
(g7
g3
NtRp935
(I354
(dp936
tbsS"'"
g1
(g7
g3
NtRp937
(I44
(dp938
tbsS'f'
g1
(g7
g3
NtRp939
(I10
(dp940
tbsS'i'
g1
(g7
g3
NtRp941
(I94
(dp942
tbsS'l'
g1
(g7
g3
NtRp943
(I6
(dp944
tbsS'o'
g1
(g7
g3
NtRp945
(I1226
(dp946
tbsS's'
g1
(g7
g3
NtRp947
(I186
(dp948
tbsS't'
g1
(g7
g3
NtRp949
(I76
(dp950
tbsS'w'
g1
(g7
g3
NtRp951
(I20
(dp952
tbstbstbsS'x'
g1
(g7
g3
NtRp953
(g9
(dp954
S'|'
g1
(g7
g3
NtRp955
(g9
(dp956
S'a'
g1
(g7
g3
NtRp957
(I16
(dp958
tbsS'c'
g1
(g7
g3
NtRp959
(I48
(dp960
tbsS'e'
g1
(g7
g3
NtRp961
(I66
(dp962
tbsS'i'
g1
(g7
g3
NtRp963
(I32
(dp964
tbsS'h'
g1
(g7
g3
NtRp965
(I2
(dp966
tbsS'p'
g1
(g7
g3
NtRp967
(I32
(dp968
tbsS't'
g1
(g7
g3
NtRp969
(I68
(dp970
tbstbstbsS'z'
g1
(g7
g3
NtRp971
(g9
(dp972
S'|'
g1
(g7
g3
NtRp973
(g9
(dp974
S'a'
g1
(g7
g3
NtRp975
(I82
(dp976
tbsS'e'
g1
(g7
g3
NtRp977
(I54
(dp978
tbsS'i'
g1
(g7
g3
NtRp979
(I12
(dp980
tbsS'l'
g1
(g7
g3
NtRp981
(I12
(dp982
tbsS'u'
g1
(g7
g3
NtRp983
(I4
(dp984
tbsS't'
g1
(g7
g3
NtRp985
(I2
(dp986
tbsS'y'
g1
(g7
g3
NtRp987
(I14
(dp988
tbsS'z'
g1
(g7
g3
NtRp989
(I24
(dp990
tbstbstbstbsb.