ccopy_reg
_reconstructor
p1
(cpytrie
StringTrie
p2
c__builtin__
object
p3
NtRp4
(dp5
S'_root'
p6
g1
(cpytrie
Node
p7
g3
NtRp8
(cpytrie
NULL
p9
(dp10
S' '
g1
(g7
g3
NtRp11
(g9
(dp12
S'|'
g1
(g7
g3
NtRp13
(g9
(dp14
S' '
g1
(g7
g3
NtRp15
(I1
(dp16
tbsS"'"
g1
(g7
g3
NtRp17
(I1
(dp18
tbsS'a'
g1
(g7
g3
NtRp19
(I4723
(dp20
tbsS'c'
g1
(g7
g3
NtRp21
(I1494
(dp22
tbsS'b'
g1
(g7
g3
NtRp23
(I1849
(dp24
tbsS'e'
g1
(g7
g3
NtRp25
(I567
(dp26
tbsS'd'
g1
(g7
g3
NtRp27
(I1224
(dp28
tbsS'g'
g1
(g7
g3
NtRp29
(I1111
(dp30
tbsS'f'
g1
(g7
g3
NtRp31
(I1410
(dp32
tbsS'i'
g1
(g7
g3
NtRp33
(I2166
(dp34
tbsS'h'
g1
(g7
g3
NtRp35
(I2608
(dp36
tbsS'k'
g1
(g7
g3
NtRp37
(I332
(dp38
tbsS'j'
g1
(g7
g3
NtRp39
(I140
(dp40
tbsS'm'
g1
(g7
g3
NtRp41
(I1369
(dp42
tbsS'l'
g1
(g7
g3
NtRp43
(I1117
(dp44
tbsS'o'
g1
(g7
g3
NtRp45
(I1959
(dp46
tbsS'n'
g1
(g7
g3
NtRp47
(I780
(dp48
tbsS'q'
g1
(g7
g3
NtRp49
(I102
(dp50
tbsS'p'
g1
(g7
g3
NtRp51
(I701
(dp52
tbsS's'
g1
(g7
g3
NtRp53
(I3241
(dp54
tbsS'r'
g1
(g7
g3
NtRp55
(I684
(dp56
tbsS'u'
g1
(g7
g3
NtRp57
(I444
(dp58
tbsS't'
g1
(g7
g3
NtRp59
(I7034
(dp60
tbsS'w'
g1
(g7
g3
NtRp61
(I3384
(dp62
tbsS'v'
g1
(g7
g3
NtRp63
(I137
(dp64
tbsS'y'
g1
(g7
g3
NtRp65
(I669
(dp66
tbsS'x'
g1
(g7
g3
NtRp67
(I1
(dp68
tbsS'z'
g1
(g7
g3
NtRp69
(I7
(dp70
tbstbstbsS"'"
g1
(g7
g3
NtRp71
(g9
(dp72
S'|'
g1
(g7
g3
NtRp73
(g9
(dp74
S' '
g1
(g7
g3
NtRp75
(I1
(dp76
tbsS"'"
g1
(g7
g3
NtRp77
(I1
(dp78
tbsS'a'
g1
(g7
g3
NtRp79
(I1
(dp80
tbsS'c'
g1
(g7
g3
NtRp81
(I3
(dp82
tbsS'b'
g1
(g7
g3
NtRp83
(I1
(dp84
tbsS'e'
g1
(g7
g3
NtRp85
(I1
(dp86
tbsS'd'
g1
(g7
g3
NtRp87
(I3
(dp88
tbsS'g'
g1
(g7
g3
NtRp89
(I1
(dp90
tbsS'f'
g1
(g7
g3
NtRp91
(I1
(dp92
tbsS'i'
g1
(g7
g3
NtRp93
(I1
(dp94
tbsS'h'
g1
(g7
g3
NtRp95
(I1
(dp96
tbsS'k'
g1
(g7
g3
NtRp97
(I1
(dp98
tbsS'j'
g1
(g7
g3
NtRp99
(I1
(dp100
tbsS'm'
g1
(g7
g3
NtRp101
(I30
(dp102
tbsS'l'
g1
(g7
g3
NtRp103
(I16
(dp104
tbsS'o'
g1
(g7
g3
NtRp105
(I1
(dp106
tbsS'n'
g1
(g7
g3
NtRp107
(I1
(dp108
tbsS'q'
g1
(g7
g3
NtRp109
(I1
(dp110
tbsS'p'
g1
(g7
g3
NtRp111
(I1
(dp112
tbsS's'
g1
(g7
g3
NtRp113
(I88
(dp114
tbsS'r'
g1
(g7
g3
NtRp115
(I6
(dp116
tbsS'u'
g1
(g7
g3
NtRp117
(I1
(dp118
tbsS't'
g1
(g7
g3
NtRp119
(I85
(dp120
tbsS'w'
g1
(g7
g3
NtRp121
(I1
(dp122
tbsS'v'
g1
(g7
g3
NtRp123
(I8
(dp124
tbsS'y'
g1
(g7
g3
NtRp125
(I1
(dp126
tbsS'x'
g1
(g7
g3
NtRp127
(I1
(dp128
tbsS'z'
g1
(g7
g3
NtRp129
(I1
(dp130
tbstbstbsS'a'
g1
(g7
g3
NtRp131
(g9
(dp132
S'|'
g1
(g7
g3
NtRp133
(g9
(dp134
S' '
g1
(g7
g3
NtRp135
(I1
(dp136
tbsS"'"
g1
(g7
g3
NtRp137
(I1
(dp138
tbsS'a'
g1
(g7
g3
NtRp139
(I3
(dp140
tbsS'c'
g1
(g7
g3
NtRp141
(I304
(dp142
tbsS'b'
g1
(g7
g3
NtRp143
(I98
(dp144
tbsS'e'
g1
(g7
g3
NtRp145
(I1
(dp146
tbsS'd'
g1
(g7
g3
NtRp147
(I754
(dp148
tbsS'g'
g1
(g7
g3
NtRp149
(I203
(dp150
tbsS'f'
g1
(g7
g3
NtRp151
(I142
(dp152
tbsS'i'
g1
(g7
g3
NtRp153
(I745
(dp154
tbsS'h'
g1
(g7
g3
NtRp155
(I13
(dp156
tbsS'k'
g1
(g7
g3
NtRp157
(I151
(dp158
tbsS'j'
g1
(g7
g3
NtRp159
(I3
(dp160
tbsS'm'
g1
(g7
g3
NtRp161
(I300
(dp162
tbsS'l'
g1
(g7
g3
NtRp163
(I905
(dp164
tbsS'o'
g1
(g7
g3
NtRp165
(I1
(dp166
tbsS'n'
g1
(g7
g3
NtRp167
(I2979
(dp168
tbsS'q'
g1
(g7
g3
NtRp169
(I1
(dp170
tbsS'p'
g1
(g7
g3
NtRp171
(I145
(dp172
tbsS's'
g1
(g7
g3
NtRp173
(I1455
(dp174
tbsS'r'
g1
(g7
g3
NtRp175
(I1392
(dp176
tbsS'u'
g1
(g7
g3
NtRp177
(I139
(dp178
tbsS't'
g1
(g7
g3
NtRp179
(I1250
(dp180
tbsS'w'
g1
(g7
g3
NtRp181
(I203
(dp182
tbsS'v'
g1
(g7
g3
NtRp183
(I330
(dp184
tbsS'y'
g1
(g7
g3
NtRp185
(I336
(dp186
tbsS'x'
g1
(g7
g3
NtRp187
(I29
(dp188
tbsS'z'
g1
(g7
g3
NtRp189
(I13
(dp190
tbstbstbsS'c'
g1
(g7
g3
NtRp191
(g9
(dp192
S'|'
g1
(g7
g3
NtRp193
(g9
(dp194
S' '
g1
(g7
g3
NtRp195
(I1
(dp196
tbsS"'"
g1
(g7
g3
NtRp197
(I1
(dp198
tbsS'a'
g1
(g7
g3
NtRp199
(I751
(dp200
tbsS'c'
g1
(g7
g3
NtRp201
(I7
(dp202
tbsS'b'
g1
(g7
g3
NtRp203
(I1
(dp204
tbsS'e'
g1
(g7
g3
NtRp205
(I382
(dp206
tbsS'd'
g1
(g7
g3
NtRp207
(I1
(dp208
tbsS'g'
g1
(g7
g3
NtRp209
(I1
(dp210
tbsS'f'
g1
(g7
g3
NtRp211
(I1
(dp212
tbsS'i'
g1
(g7
g3
NtRp213
(I122
(dp214
tbsS'h'
g1
(g7
g3
NtRp215
(I579
(dp216
tbsS'k'
g1
(g7
g3
NtRp217
(I371
(dp218
tbsS'j'
g1
(g7
g3
NtRp219
(I1
(dp220
tbsS'm'
g1
(g7
g3
NtRp221
(I1
(dp222
tbsS'l'
g1
(g7
g3
NtRp223
(I165
(dp224
tbsS'o'
g1
(g7
g3
NtRp225
(I568
(dp226
tbsS'n'
g1
(g7
g3
NtRp227
(I1
(dp228
tbsS'q'
g1
(g7
g3
NtRp229
(I1
(dp230
tbsS'p'
g1
(g7
g3
NtRp231
(I1
(dp232
tbsS's'
g1
(g7
g3
NtRp233
(I1
(dp234
tbsS'r'
g1
(g7
g3
NtRp235
(I379
(dp236
tbsS'u'
g1
(g7
g3
NtRp237
(I56
(dp238
tbsS't'
g1
(g7
g3
NtRp239
(I64
(dp240
tbsS'w'
g1
(g7
g3
NtRp241
(I1
(dp242
tbsS'v'
g1
(g7
g3
NtRp243
(I1
(dp244
tbsS'y'
g1
(g7
g3
NtRp245
(I21
(dp246
tbsS'x'
g1
(g7
g3
NtRp247
(I1
(dp248
tbsS'z'
g1
(g7
g3
NtRp249
(I1
(dp250
tbstbstbsS'b'
g1
(g7
g3
NtRp251
(g9
(dp252
S'|'
g1
(g7
g3
NtRp253
(g9
(dp254
S' '
g1
(g7
g3
NtRp255
(I1
(dp256
tbsS"'"
g1
(g7
g3
NtRp257
(I1
(dp258
tbsS'a'
g1
(g7
g3
NtRp259
(I249
(dp260
tbsS'c'
g1
(g7
g3
NtRp261
(I1
(dp262
tbsS'b'
g1
(g7
g3
NtRp263
(I10
(dp264
tbsS'e'
g1
(g7
g3
NtRp265
(I725
(dp266
tbsS'd'
g1
(g7
g3
NtRp267
(I1
(dp268
tbsS'g'
g1
(g7
g3
NtRp269
(I1
(dp270
tbsS'f'
g1
(g7
g3
NtRp271
(I1
(dp272
tbsS'i'
g1
(g7
g3
NtRp273
(I112
(dp274
tbsS'h'
g1
(g7
g3
NtRp275
(I1
(dp276
tbsS'k'
g1
(g7
g3
NtRp277
(I1
(dp278
tbsS'j'
g1
(g7
g3
NtRp279
(I2
(dp280
tbsS'm'
g1
(g7
g3
NtRp281
(I1
(dp282
tbsS'l'
g1
(g7
g3
NtRp283
(I170
(dp284
tbsS'o'
g1
(g7
g3
NtRp285
(I176
(dp286
tbsS'n'
g1
(g7
g3
NtRp287
(I1
(dp288
tbsS'q'
g1
(g7
g3
NtRp289
(I1
(dp290
tbsS'p'
g1
(g7
g3
NtRp291
(I1
(dp292
tbsS's'
g1
(g7
g3
NtRp293
(I2
(dp294
tbsS'r'
g1
(g7
g3
NtRp295
(I238
(dp296
tbsS'u'
g1
(g7
g3
NtRp297
(I357
(dp298
tbsS't'
g1
(g7
g3
NtRp299
(I2
(dp300
tbsS'w'
g1
(g7
g3
NtRp301
(I1
(dp302
tbsS'v'
g1
(g7
g3
NtRp303
(I1
(dp304
tbsS'y'
g1
(g7
g3
NtRp305
(I120
(dp306
tbsS'x'
g1
(g7
g3
NtRp307
(I1
(dp308
tbsS'z'
g1
(g7
g3
NtRp309
(I1
(dp310
tbstbstbsS'e'
g1
(g7
g3
NtRp311
(g9
(dp312
S'|'
g1
(g7
g3
NtRp313
(g9
(dp314
S' '
g1
(g7
g3
NtRp315
(I1
(dp316
tbsS"'"
g1
(g7
g3
NtRp317
(I10
(dp318
tbsS'a'
g1
(g7
g3
NtRp319
(I1106
(dp320
tbsS'c'
g1
(g7
g3
NtRp321
(I398
(dp322
tbsS'b'
g1
(g7
g3
NtRp323
(I4
(dp324
tbsS'e'
g1
(g7
g3
NtRp325
(I737
(dp326
tbsS'd'
g1
(g7
g3
NtRp327
(I1964
(dp328
tbsS'g'
g1
(g7
g3
NtRp329
(I80
(dp330
tbsS'f'
g1
(g7
g3
NtRp331
(I154
(dp332
tbsS'i'
g1
(g7
g3
NtRp333
(I163
(dp334
tbsS'h'
g1
(g7
g3
NtRp335
(I29
(dp336
tbsS'k'
g1
(g7
g3
NtRp337
(I17
(dp338
tbsS'j'
g1
(g7
g3
NtRp339
(I3
(dp340
tbsS'm'
g1
(g7
g3
NtRp341
(I454
(dp342
tbsS'l'
g1
(g7
g3
NtRp343
(I612
(dp344
tbsS'o'
g1
(g7
g3
NtRp345
(I66
(dp346
tbsS'n'
g1
(g7
g3
NtRp347
(I1144
(dp348
tbsS'q'
g1
(g7
g3
NtRp349
(I4
(dp350
tbsS'p'
g1
(g7
g3
NtRp351
(I221
(dp352
tbsS's'
g1
(g7
g3
NtRp353
(I961
(dp354
tbsS'r'
g1
(g7
g3
NtRp355
(I2533
(dp356
tbsS'u'
g1
(g7
g3
NtRp357
(I4
(dp358
tbsS't'
g1
(g7
g3
NtRp359
(I443
(dp360
tbsS'w'
g1
(g7
g3
NtRp361
(I140
(dp362
tbsS'v'
g1
(g7
g3
NtRp363
(I268
(dp364
tbsS'y'
g1
(g7
g3
NtRp365
(I562
(dp366
tbsS'x'
g1
(g7
g3
NtRp367
(I87
(dp368
tbsS'z'
g1
(g7
g3
NtRp369
(I2
(dp370
tbstbstbsS'd'
g1
(g7
g3
NtRp371
(g9
(dp372
S'|'
g1
(g7
g3
NtRp373
(g9
(dp374
S' '
g1
(g7
g3
NtRp375
(I1
(dp376
tbsS"'"
g1
(g7
g3
NtRp377
(I4
(dp378
tbsS'a'
g1
(g7
g3
NtRp379
(I153
(dp380
tbsS'c'
g1
(g7
g3
NtRp381
(I8
(dp382
tbsS'b'
g1
(g7
g3
NtRp383
(I24
(dp384
tbsS'e'
g1
(g7
g3
NtRp385
(I617
(dp386
tbsS'd'
g1
(g7
g3
NtRp387
(I66
(dp388
tbsS'g'
g1
(g7
g3
NtRp389
(I21
(dp390
tbsS'f'
g1
(g7
g3
NtRp391
(I13
(dp392
tbsS'i'
g1
(g7
g3
NtRp393
(I259
(dp394
tbsS'h'
g1
(g7
g3
NtRp395
(I4
(dp396
tbsS'k'
g1
(g7
g3
NtRp397
(I2
(dp398
tbsS'j'
g1
(g7
g3
NtRp399
(I1
(dp400
tbsS'm'
g1
(g7
g3
NtRp401
(I189
(dp402
tbsS'l'
g1
(g7
g3
NtRp403
(I126
(dp404
tbsS'o'
g1
(g7
g3
NtRp405
(I736
(dp406
tbsS'n'
g1
(g7
g3
NtRp407
(I20
(dp408
tbsS'q'
g1
(g7
g3
NtRp409
(I1
(dp410
tbsS'p'
g1
(g7
g3
NtRp411
(I1
(dp412
tbsS's'
g1
(g7
g3
NtRp413
(I168
(dp414
tbsS'r'
g1
(g7
g3
NtRp415
(I90
(dp416
tbsS'u'
g1
(g7
g3
NtRp417
(I18
(dp418
tbsS't'
g1
(g7
g3
NtRp419
(I2
(dp420
tbsS'w'
g1
(g7
g3
NtRp421
(I5
(dp422
tbsS'v'
g1
(g7
g3
NtRp423
(I8
(dp424
tbsS'y'
g1
(g7
g3
NtRp425
(I58
(dp426
tbsS'x'
g1
(g7
g3
NtRp427
(I1
(dp428
tbsS'z'
g1
(g7
g3
NtRp429
(I1
(dp430
tbstbstbsS'g'
g1
(g7
g3
NtRp431
(g9
(dp432
S'|'
g1
(g7
g3
NtRp433
(g9
(dp434
S' '
g1
(g7
g3
NtRp435
(I1
(dp436
tbsS"'"
g1
(g7
g3
NtRp437
(I1
(dp438
tbsS'a'
g1
(g7
g3
NtRp439
(I217
(dp440
tbsS'c'
g1
(g7
g3
NtRp441
(I1
(dp442
tbsS'b'
g1
(g7
g3
NtRp443
(I1
(dp444
tbsS'e'
g1
(g7
g3
NtRp445
(I375
(dp446
tbsS'd'
g1
(g7
g3
NtRp447
(I3
(dp448
tbsS'g'
g1
(g7
g3
NtRp449
(I36
(dp450
tbsS'f'
g1
(g7
g3
NtRp451
(I2
(dp452
tbsS'i'
g1
(g7
g3
NtRp453
(I188
(dp454
tbsS'h'
g1
(g7
g3
NtRp455
(I413
(dp456
tbsS'k'
g1
(g7
g3
NtRp457
(I1
(dp458
tbsS'j'
g1
(g7
g3
NtRp459
(I1
(dp460
tbsS'm'
g1
(g7
g3
NtRp461
(I1
(dp462
tbsS'l'
g1
(g7
g3
NtRp463
(I80
(dp464
tbsS'o'
g1
(g7
g3
NtRp465
(I284
(dp466
tbsS'n'
g1
(g7
g3
NtRp467
(I5
(dp468
tbsS'q'
g1
(g7
g3
NtRp469
(I1
(dp470
tbsS'p'
g1
(g7
g3
NtRp471
(I1
(dp472
tbsS's'
g1
(g7
g3
NtRp473
(I72
(dp474
tbsS'r'
g1
(g7
g3
NtRp475
(I436
(dp476
tbsS'u'
g1
(g7
g3
NtRp477
(I36
(dp478
tbsS't'
g1
(g7
g3
NtRp479
(I4
(dp480
tbsS'w'
g1
(g7
g3
NtRp481
(I1
(dp482
tbsS'v'
g1
(g7
g3
NtRp483
(I1
(dp484
tbsS'y'
g1
(g7
g3
NtRp485
(I6
(dp486
tbsS'x'
g1
(g7
g3
NtRp487
(I1
(dp488
tbsS'z'
g1
(g7
g3
NtRp489
(I1
(dp490
tbstbstbsS'f'
g1
(g7
g3
NtRp491
(g9
(dp492
S'|'
g1
(g7
g3
NtRp493
(g9
(dp494
S' '
g1
(g7
g3
NtRp495
(I1
(dp496
tbsS"'"
g1
(g7
g3
NtRp497
(I2
(dp498
tbsS'a'
g1
(g7
g3
NtRp499
(I186
(dp500
tbsS'c'
g1
(g7
g3
NtRp501
(I1
(dp502
tbsS'b'
g1
(g7
g3
NtRp503
(I1
(dp504
tbsS'e'
g1
(g7
g3
NtRp505
(I215
(dp506
tbsS'd'
g1
(g7
g3
NtRp507
(I1
(dp508
tbsS'g'
g1
(g7
g3
NtRp509
(I1
(dp510
tbsS'f'
g1
(g7
g3
NtRp511
(I86
(dp512
tbsS'i'
g1
(g7
g3
NtRp513
(I214
(dp514
tbsS'h'
g1
(g7
g3
NtRp515
(I1
(dp516
tbsS'k'
g1
(g7
g3
NtRp517
(I1
(dp518
tbsS'j'
g1
(g7
g3
NtRp519
(I1
(dp520
tbsS'm'
g1
(g7
g3
NtRp521
(I1
(dp522
tbsS'l'
g1
(g7
g3
NtRp523
(I114
(dp524
tbsS'o'
g1
(g7
g3
NtRp525
(I639
(dp526
tbsS'n'
g1
(g7
g3
NtRp527
(I1
(dp528
tbsS'q'
g1
(g7
g3
NtRp529
(I1
(dp530
tbsS'p'
g1
(g7
g3
NtRp531
(I1
(dp532
tbsS's'
g1
(g7
g3
NtRp533
(I2
(dp534
tbsS'r'
g1
(g7
g3
NtRp535
(I269
(dp536
tbsS'u'
g1
(g7
g3
NtRp537
(I181
(dp538
tbsS't'
g1
(g7
g3
NtRp539
(I156
(dp540
tbsS'w'
g1
(g7
g3
NtRp541
(I2
(dp542
tbsS'v'
g1
(g7
g3
NtRp543
(I1
(dp544
tbsS'y'
g1
(g7
g3
NtRp545
(I1
(dp546
tbsS'x'
g1
(g7
g3
NtRp547
(I1
(dp548
tbsS'z'
g1
(g7
g3
NtRp549
(I1
(dp550
tbstbstbsS'i'
g1
(g7
g3
NtRp551
(g9
(dp552
S'|'
g1
(g7
g3
NtRp553
(g9
(dp554
S' '
g1
(g7
g3
NtRp555
(I1
(dp556
tbsS"'"
g1
(g7
g3
NtRp557
(I52
(dp558
tbsS'a'
g1
(g7
g3
NtRp559
(I33
(dp560
tbsS'c'
g1
(g7
g3
NtRp561
(I326
(dp562
tbsS'b'
g1
(g7
g3
NtRp563
(I48
(dp564
tbsS'e'
g1
(g7
g3
NtRp565
(I386
(dp566
tbsS'd'
g1
(g7
g3
NtRp567
(I638
(dp568
tbsS'g'
g1
(g7
g3
NtRp569
(I281
(dp570
tbsS'f'
g1
(g7
g3
NtRp571
(I232
(dp572
tbsS'i'
g1
(g7
g3
NtRp573
(I1
(dp574
tbsS'h'
g1
(g7
g3
NtRp575
(I1
(dp576
tbsS'k'
g1
(g7
g3
NtRp577
(I72
(dp578
tbsS'j'
g1
(g7
g3
NtRp579
(I1
(dp580
tbsS'm'
g1
(g7
g3
NtRp581
(I362
(dp582
tbsS'l'
g1
(g7
g3
NtRp583
(I589
(dp584
tbsS'o'
g1
(g7
g3
NtRp585
(I261
(dp586
tbsS'n'
g1
(g7
g3
NtRp587
(I2323
(dp588
tbsS'q'
g1
(g7
g3
NtRp589
(I1
(dp590
tbsS'p'
g1
(g7
g3
NtRp591
(I36
(dp592
tbsS's'
g1
(g7
g3
NtRp593
(I904
(dp594
tbsS'r'
g1
(g7
g3
NtRp595
(I420
(dp596
tbsS'u'
g1
(g7
g3
NtRp597
(I1
(dp598
tbsS't'
g1
(g7
g3
NtRp599
(I1326
(dp600
tbsS'w'
g1
(g7
g3
NtRp601
(I1
(dp602
tbsS'v'
g1
(g7
g3
NtRp603
(I156
(dp604
tbsS'y'
g1
(g7
g3
NtRp605
(I1
(dp606
tbsS'x'
g1
(g7
g3
NtRp607
(I3
(dp608
tbsS'z'
g1
(g7
g3
NtRp609
(I61
(dp610
tbstbstbsS'h'
g1
(g7
g3
NtRp611
(g9
(dp612
S'|'
g1
(g7
g3
NtRp613
(g9
(dp614
S' '
g1
(g7
g3
NtRp615
(I1
(dp616
tbsS"'"
g1
(g7
g3
NtRp617
(I6
(dp618
tbsS'a'
g1
(g7
g3
NtRp619
(I1411
(dp620
tbsS'c'
g1
(g7
g3
NtRp621
(I1
(dp622
tbsS'b'
g1
(g7
g3
NtRp623
(I1
(dp624
tbsS'e'
g1
(g7
g3
NtRp625
(I6313
(dp626
tbsS'd'
g1
(g7
g3
NtRp627
(I1
(dp628
tbsS'g'
g1
(g7
g3
NtRp629
(I1
(dp630
tbsS'f'
g1
(g7
g3
NtRp631
(I3
(dp632
tbsS'i'
g1
(g7
g3
NtRp633
(I1069
(dp634
tbsS'h'
g1
(g7
g3
NtRp635
(I1
(dp636
tbsS'k'
g1
(g7
g3
NtRp637
(I34
(dp638
tbsS'j'
g1
(g7
g3
NtRp639
(I1
(dp640
tbsS'm'
g1
(g7
g3
NtRp641
(I1
(dp642
tbsS'l'
g1
(g7
g3
NtRp643
(I6
(dp644
tbsS'o'
g1
(g7
g3
NtRp645
(I652
(dp646
tbsS'n'
g1
(g7
g3
NtRp647
(I1
(dp648
tbsS'q'
g1
(g7
g3
NtRp649
(I1
(dp650
tbsS'p'
g1
(g7
g3
NtRp651
(I1
(dp652
tbsS's'
g1
(g7
g3
NtRp653
(I18
(dp654
tbsS'r'
g1
(g7
g3
NtRp655
(I135
(dp656
tbsS'u'
g1
(g7
g3
NtRp657
(I66
(dp658
tbsS't'
g1
(g7
g3
NtRp659
(I272
(dp660
tbsS'w'
g1
(g7
g3
NtRp661
(I3
(dp662
tbsS'v'
g1
(g7
g3
NtRp663
(I1
(dp664
tbsS'y'
g1
(g7
g3
NtRp665
(I411
(dp666
tbsS'x'
g1
(g7
g3
NtRp667
(I1
(dp668
tbsS'z'
g1
(g7
g3
NtRp669
(I1
(dp670
tbstbstbsS'k'
g1
(g7
g3
NtRp671
(g9
(dp672
S'|'
g1
(g7
g3
NtRp673
(g9
(dp674
S' '
g1
(g7
g3
NtRp675
(I1
(dp676
tbsS"'"
g1
(g7
g3
NtRp677
(I1
(dp678
tbsS'a'
g1
(g7
g3
NtRp679
(I63
(dp680
tbsS'c'
g1
(g7
g3
NtRp681
(I1
(dp682
tbsS'b'
g1
(g7
g3
NtRp683
(I1
(dp684
tbsS'e'
g1
(g7
g3
NtRp685
(I726
(dp686
tbsS'd'
g1
(g7
g3
NtRp687
(I1
(dp688
tbsS'g'
g1
(g7
g3
NtRp689
(I1
(dp690
tbsS'f'
g1
(g7
g3
NtRp691
(I11
(dp692
tbsS'i'
g1
(g7
g3
NtRp693
(I267
(dp694
tbsS'h'
g1
(g7
g3
NtRp695
(I1
(dp696
tbsS'k'
g1
(g7
g3
NtRp697
(I3
(dp698
tbsS'j'
g1
(g7
g3
NtRp699
(I1
(dp700
tbsS'm'
g1
(g7
g3
NtRp701
(I8
(dp702
tbsS'l'
g1
(g7
g3
NtRp703
(I27
(dp704
tbsS'o'
g1
(g7
g3
NtRp705
(I2
(dp706
tbsS'n'
g1
(g7
g3
NtRp707
(I110
(dp708
tbsS'q'
g1
(g7
g3
NtRp709
(I1
(dp710
tbsS'p'
g1
(g7
g3
NtRp711
(I1
(dp712
tbsS's'
g1
(g7
g3
NtRp713
(I38
(dp714
tbsS'r'
g1
(g7
g3
NtRp715
(I1
(dp716
tbsS'u'
g1
(g7
g3
NtRp717
(I1
(dp718
tbsS't'
g1
(g7
g3
NtRp719
(I1
(dp720
tbsS'w'
g1
(g7
g3
NtRp721
(I4
(dp722
tbsS'v'
g1
(g7
g3
NtRp723
(I1
(dp724
tbsS'y'
g1
(g7
g3
NtRp725
(I21
(dp726
tbsS'x'
g1
(g7
g3
NtRp727
(I1
(dp728
tbsS'z'
g1
(g7
g3
NtRp729
(I1
(dp730
tbstbstbsS'j'
g1
(g7
g3
NtRp731
(g9
(dp732
S'|'
g1
(g7
g3
NtRp733
(g9
(dp734
S' '
g1
(g7
g3
NtRp735
(I1
(dp736
tbsS"'"
g1
(g7
g3
NtRp737
(I1
(dp738
tbsS'a'
g1
(g7
g3
NtRp739
(I9
(dp740
tbsS'c'
g1
(g7
g3
NtRp741
(I1
(dp742
tbsS'b'
g1
(g7
g3
NtRp743
(I1
(dp744
tbsS'e'
g1
(g7
g3
NtRp745
(I9
(dp746
tbsS'd'
g1
(g7
g3
NtRp747
(I1
(dp748
tbsS'g'
g1
(g7
g3
NtRp749
(I1
(dp750
tbsS'f'
g1
(g7
g3
NtRp751
(I1
(dp752
tbsS'i'
g1
(g7
g3
NtRp753
(I1
(dp754
tbsS'h'
g1
(g7
g3
NtRp755
(I1
(dp756
tbsS'k'
g1
(g7
g3
NtRp757
(I1
(dp758
tbsS'j'
g1
(g7
g3
NtRp759
(I1
(dp760
tbsS'm'
g1
(g7
g3
NtRp761
(I1
(dp762
tbsS'l'
g1
(g7
g3
NtRp763
(I1
(dp764
tbsS'o'
g1
(g7
g3
NtRp765
(I74
(dp766
tbsS'n'
g1
(g7
g3
NtRp767
(I1
(dp768
tbsS'q'
g1
(g7
g3
NtRp769
(I1
(dp770
tbsS'p'
g1
(g7
g3
NtRp771
(I1
(dp772
tbsS's'
g1
(g7
g3
NtRp773
(I1
(dp774
tbsS'r'
g1
(g7
g3
NtRp775
(I1
(dp776
tbsS'u'
g1
(g7
g3
NtRp777
(I61
(dp778
tbsS't'
g1
(g7
g3
NtRp779
(I1
(dp780
tbsS'w'
g1
(g7
g3
NtRp781
(I1
(dp782
tbsS'v'
g1
(g7
g3
NtRp783
(I1
(dp784
tbsS'y'
g1
(g7
g3
NtRp785
(I1
(dp786
tbsS'x'
g1
(g7
g3
NtRp787
(I1
(dp788
tbsS'z'
g1
(g7
g3
NtRp789
(I1
(dp790
tbstbstbsS'm'
g1
(g7
g3
NtRp791
(g9
(dp792
S'|'
g1
(g7
g3
NtRp793
(g9
(dp794
S' '
g1
(g7
g3
NtRp795
(I1
(dp796
tbsS"'"
g1
(g7
g3
NtRp797
(I2
(dp798
tbsS'a'
g1
(g7
g3
NtRp799
(I688
(dp800
tbsS'c'
g1
(g7
g3
NtRp801
(I1
(dp802
tbsS'b'
g1
(g7
g3
NtRp803
(I57
(dp804
tbsS'e'
g1
(g7
g3
NtRp805
(I875
(dp806
tbsS'd'
g1
(g7
g3
NtRp807
(I1
(dp808
tbsS'g'
g1
(g7
g3
NtRp809
(I1
(dp810
tbsS'f'
g1
(g7
g3
NtRp811
(I12
(dp812
tbsS'i'
g1
(g7
g3
NtRp813
(I210
(dp814
tbsS'h'
g1
(g7
g3
NtRp815
(I4
(dp816
tbsS'k'
g1
(g7
g3
NtRp817
(I1
(dp818
tbsS'j'
g1
(g7
g3
NtRp819
(I1
(dp820
tbsS'm'
g1
(g7
g3
NtRp821
(I30
(dp822
tbsS'l'
g1
(g7
g3
NtRp823
(I9
(dp824
tbsS'o'
g1
(g7
g3
NtRp825
(I252
(dp826
tbsS'n'
g1
(g7
g3
NtRp827
(I5
(dp828
tbsS'q'
g1
(g7
g3
NtRp829
(I1
(dp830
tbsS'p'
g1
(g7
g3
NtRp831
(I59
(dp832
tbsS's'
g1
(g7
g3
NtRp833
(I98
(dp834
tbsS'r'
g1
(g7
g3
NtRp835
(I13
(dp836
tbsS'u'
g1
(g7
g3
NtRp837
(I162
(dp838
tbsS't'
g1
(g7
g3
NtRp839
(I1
(dp840
tbsS'w'
g1
(g7
g3
NtRp841
(I1
(dp842
tbsS'v'
g1
(g7
g3
NtRp843
(I1
(dp844
tbsS'y'
g1
(g7
g3
NtRp845
(I219
(dp846
tbsS'x'
g1
(g7
g3
NtRp847
(I1
(dp848
tbsS'z'
g1
(g7
g3
NtRp849
(I1
(dp850
tbstbstbsS'l'
g1
(g7
g3
NtRp851
(g9
(dp852
S'|'
g1
(g7
g3
NtRp853
(g9
(dp854
S' '
g1
(g7
g3
NtRp855
(I1
(dp856
tbsS"'"
g1
(g7
g3
NtRp857
(I2
(dp858
tbsS'a'
g1
(g7
g3
NtRp859
(I368
(dp860
tbsS'c'
g1
(g7
g3
NtRp861
(I15
(dp862
tbsS'b'
g1
(g7
g3
NtRp863
(I3
(dp864
tbsS'e'
g1
(g7
g3
NtRp865
(I993
(dp866
tbsS'd'
g1
(g7
g3
NtRp867
(I619
(dp868
tbsS'g'
g1
(g7
g3
NtRp869
(I4
(dp870
tbsS'f'
g1
(g7
g3
NtRp871
(I91
(dp872
tbsS'i'
g1
(g7
g3
NtRp873
(I737
(dp874
tbsS'h'
g1
(g7
g3
NtRp875
(I1
(dp876
tbsS'k'
g1
(g7
g3
NtRp877
(I116
(dp878
tbsS'j'
g1
(g7
g3
NtRp879
(I1
(dp880
tbsS'm'
g1
(g7
g3
NtRp881
(I11
(dp882
tbsS'l'
g1
(g7
g3
NtRp883
(I1105
(dp884
tbsS'o'
g1
(g7
g3
NtRp885
(I607
(dp886
tbsS'n'
g1
(g7
g3
NtRp887
(I2
(dp888
tbsS'q'
g1
(g7
g3
NtRp889
(I1
(dp890
tbsS'p'
g1
(g7
g3
NtRp891
(I53
(dp892
tbsS's'
g1
(g7
g3
NtRp893
(I75
(dp894
tbsS'r'
g1
(g7
g3
NtRp895
(I4
(dp896
tbsS'u'
g1
(g7
g3
NtRp897
(I50
(dp898
tbsS't'
g1
(g7
g3
NtRp899
(I63
(dp900
tbsS'w'
g1
(g7
g3
NtRp901
(I22
(dp902
tbsS'v'
g1
(g7
g3
NtRp903
(I59
(dp904
tbsS'y'
g1
(g7
g3
NtRp905
(I590
(dp906
tbsS'x'
g1
(g7
g3
NtRp907
(I1
(dp908
tbsS'z'
g1
(g7
g3
NtRp909
(I1
(dp910
tbstbstbsS'o'
g1
(g7
g3
NtRp911
(g9
(dp912
S'|'
g1
(g7
g3
NtRp913
(g9
(dp914
S' '
g1
(g7
g3
NtRp915
(I1
(dp916
tbsS"'"
g1
(g7
g3
NtRp917
(I6
(dp918
tbsS'a'
g1
(g7
g3
NtRp919
(I105
(dp920
tbsS'c'
g1
(g7
g3
NtRp921
(I51
(dp922
tbsS'b'
g1
(g7
g3
NtRp923
(I29
(dp924
tbsS'e'
g1
(g7
g3
NtRp925
(I59
(dp926
tbsS'd'
g1
(g7
g3
NtRp927
(I388
(dp928
tbsS'g'
g1
(g7
g3
NtRp929
(I50
(dp930
tbsS'f'
g1
(g7
g3
NtRp931
(I895
(dp932
tbsS'i'
g1
(g7
g3
NtRp933
(I133
(dp934
tbsS'h'
g1
(g7
g3
NtRp935
(I40
(dp936
tbsS'k'
g1
(g7
g3
NtRp937
(I185
(dp938
tbsS'j'
g1
(g7
g3
NtRp939
(I1
(dp940
tbsS'm'
g1
(g7
g3
NtRp941
(I527
(dp942
tbsS'l'
g1
(g7
g3
NtRp943
(I288
(dp944
tbsS'o'
g1
(g7
g3
NtRp945
(I779
(dp946
tbsS'n'
g1
(g7
g3
NtRp947
(I1292
(dp948
tbsS'q'
g1
(g7
g3
NtRp949
(I8
(dp950
tbsS'p'
g1
(g7
g3
NtRp951
(I190
(dp952
tbsS's'
g1
(g7
g3
NtRp953
(I174
(dp954
tbsS'r'
g1
(g7
g3
NtRp955
(I1359
(dp956
tbsS'u'
g1
(g7
g3
NtRp957
(I1791
(dp958
tbsS't'
g1
(g7
g3
NtRp959
(I993
(dp960
tbsS'w'
g1
(g7
g3
NtRp961
(I951
(dp962
tbsS'v'
g1
(g7
g3
NtRp963
(I172
(dp964
tbsS'y'
g1
(g7
g3
NtRp965
(I33
(dp966
tbsS'x'
g1
(g7
g3
NtRp967
(I7
(dp968
tbsS'z'
g1
(g7
g3
NtRp969
(I163
(dp970
tbstbstbsS'n'
g1
(g7
g3
NtRp971
(g9
(dp972
S'|'
g1
(g7
g3
NtRp973
(g9
(dp974
S' '
g1
(g7
g3
NtRp975
(I1
(dp976
tbsS"'"
g1
(g7
g3
NtRp977
(I101
(dp978
tbsS'a'
g1
(g7
g3
NtRp979
(I58
(dp980
tbsS'c'
g1
(g7
g3
NtRp981
(I200
(dp982
tbsS'b'
g1
(g7
g3
NtRp983
(I4
(dp984
tbsS'e'
g1
(g7
g3
NtRp985
(I768
(dp986
tbsS'd'
g1
(g7
g3
NtRp987
(I2320
(dp988
tbsS'g'
g1
(g7
g3
NtRp989
(I1092
(dp990
tbsS'f'
g1
(g7
g3
NtRp991
(I12
(dp992
tbsS'i'
g1
(g7
g3
NtRp993
(I157
(dp994
tbsS'h'
g1
(g7
g3
NtRp995
(I14
(dp996
tbsS'k'
g1
(g7
g3
NtRp997
(I196
(dp998
tbsS'j'
g1
(g7
g3
NtRp999
(I6
(dp1000
tbsS'm'
g1
(g7
g3
NtRp1001
(I1
(dp1002
tbsS'l'
g1
(g7
g3
NtRp1003
(I91
(dp1004
tbsS'o'
g1
(g7
g3
NtRp1005
(I701
(dp1006
tbsS'n'
g1
(g7
g3
NtRp1007
(I82
(dp1008
tbsS'q'
g1
(g7
g3
NtRp1009
(I15
(dp1010
tbsS'p'
g1
(g7
g3
NtRp1011
(I1
(dp1012
tbsS's'
g1
(g7
g3
NtRp1013
(I321
(dp1014
tbsS'r'
g1
(g7
g3
NtRp1015
(I14
(dp1016
tbsS'u'
g1
(g7
g3
NtRp1017
(I36
(dp1018
tbsS't'
g1
(g7
g3
NtRp1019
(I582
(dp1020
tbsS'w'
g1
(g7
g3
NtRp1021
(I4
(dp1022
tbsS'v'
g1
(g7
g3
NtRp1023
(I6
(dp1024
tbsS'y'
g1
(g7
g3
NtRp1025
(I146
(dp1026
tbsS'x'
g1
(g7
g3
NtRp1027
(I16
(dp1028
tbsS'z'
g1
(g7
g3
NtRp1029
(I1
(dp1030
tbstbstbsS'q'
g1
(g7
g3
NtRp1031
(g9
(dp1032
S'|'
g1
(g7
g3
NtRp1033
(g9
(dp1034
S' '
g1
(g7
g3
NtRp1035
(I1
(dp1036
tbsS"'"
g1
(g7
g3
NtRp1037
(I1
(dp1038
tbsS'a'
g1
(g7
g3
NtRp1039
(I1
(dp1040
tbsS'c'
g1
(g7
g3
NtRp1041
(I1
(dp1042
tbsS'b'
g1
(g7
g3
NtRp1043
(I1
(dp1044
tbsS'e'
g1
(g7
g3
NtRp1045
(I1
(dp1046
tbsS'd'
g1
(g7
g3
NtRp1047
(I1
(dp1048
tbsS'g'
g1
(g7
g3
NtRp1049
(I1
(dp1050
tbsS'f'
g1
(g7
g3
NtRp1051
(I1
(dp1052
tbsS'i'
g1
(g7
g3
NtRp1053
(I1
(dp1054
tbsS'h'
g1
(g7
g3
NtRp1055
(I1
(dp1056
tbsS'k'
g1
(g7
g3
NtRp1057
(I1
(dp1058
tbsS'j'
g1
(g7
g3
NtRp1059
(I1
(dp1060
tbsS'm'
g1
(g7
g3
NtRp1061
(I1
(dp1062
tbsS'l'
g1
(g7
g3
NtRp1063
(I1
(dp1064
tbsS'o'
g1
(g7
g3
NtRp1065
(I1
(dp1066
tbsS'n'
g1
(g7
g3
NtRp1067
(I1
(dp1068
tbsS'q'
g1
(g7
g3
NtRp1069
(I1
(dp1070
tbsS'p'
g1
(g7
g3
NtRp1071
(I1
(dp1072
tbsS's'
g1
(g7
g3
NtRp1073
(I1
(dp1074
tbsS'r'
g1
(g7
g3
NtRp1075
(I1
(dp1076
tbsS'u'
g1
(g7
g3
NtRp1077
(I127
(dp1078
tbsS't'
g1
(g7
g3
NtRp1079
(I1
(dp1080
tbsS'w'
g1
(g7
g3
NtRp1081
(I1
(dp1082
tbsS'v'
g1
(g7
g3
NtRp1083
(I1
(dp1084
tbsS'y'
g1
(g7
g3
NtRp1085
(I1
(dp1086
tbsS'x'
g1
(g7
g3
NtRp1087
(I1
(dp1088
tbsS'z'
g1
(g7
g3
NtRp1089
(I1
(dp1090
tbstbstbsS'p'
g1
(g7
g3
NtRp1091
(g9
(dp1092
S'|'
g1
(g7
g3
NtRp1093
(g9
(dp1094
S' '
g1
(g7
g3
NtRp1095
(I1
(dp1096
tbsS"'"
g1
(g7
g3
NtRp1097
(I2
(dp1098
tbsS'a'
g1
(g7
g3
NtRp1099
(I177
(dp1100
tbsS'c'
g1
(g7
g3
NtRp1101
(I1
(dp1102
tbsS'b'
g1
(g7
g3
NtRp1103
(I9
(dp1104
tbsS'e'
g1
(g7
g3
NtRp1105
(I332
(dp1106
tbsS'd'
g1
(g7
g3
NtRp1107
(I1
(dp1108
tbsS'g'
g1
(g7
g3
NtRp1109
(I1
(dp1110
tbsS'f'
g1
(g7
g3
NtRp1111
(I1
(dp1112
tbsS'i'
g1
(g7
g3
NtRp1113
(I100
(dp1114
tbsS'h'
g1
(g7
g3
NtRp1115
(I9
(dp1116
tbsS'k'
g1
(g7
g3
NtRp1117
(I1
(dp1118
tbsS'j'
g1
(g7
g3
NtRp1119
(I1
(dp1120
tbsS'm'
g1
(g7
g3
NtRp1121
(I1
(dp1122
tbsS'l'
g1
(g7
g3
NtRp1123
(I241
(dp1124
tbsS'o'
g1
(g7
g3
NtRp1125
(I257
(dp1126
tbsS'n'
g1
(g7
g3
NtRp1127
(I1
(dp1128
tbsS'q'
g1
(g7
g3
NtRp1129
(I1
(dp1130
tbsS'p'
g1
(g7
g3
NtRp1131
(I154
(dp1132
tbsS's'
g1
(g7
g3
NtRp1133
(I37
(dp1134
tbsS'r'
g1
(g7
g3
NtRp1135
(I188
(dp1136
tbsS'u'
g1
(g7
g3
NtRp1137
(I68
(dp1138
tbsS't'
g1
(g7
g3
NtRp1139
(I54
(dp1140
tbsS'w'
g1
(g7
g3
NtRp1141
(I2
(dp1142
tbsS'v'
g1
(g7
g3
NtRp1143
(I1
(dp1144
tbsS'y'
g1
(g7
g3
NtRp1145
(I31
(dp1146
tbsS'x'
g1
(g7
g3
NtRp1147
(I1
(dp1148
tbsS'z'
g1
(g7
g3
NtRp1149
(I1
(dp1150
tbstbstbsS's'
g1
(g7
g3
NtRp1151
(g9
(dp1152
S'|'
g1
(g7
g3
NtRp1153
(g9
(dp1154
S' '
g1
(g7
g3
NtRp1155
(I1
(dp1156
tbsS"'"
g1
(g7
g3
NtRp1157
(I2
(dp1158
tbsS'a'
g1
(g7
g3
NtRp1159
(I595
(dp1160
tbsS'c'
g1
(g7
g3
NtRp1161
(I285
(dp1162
tbsS'b'
g1
(g7
g3
NtRp1163
(I3
(dp1164
tbsS'e'
g1
(g7
g3
NtRp1165
(I827
(dp1166
tbsS'd'
g1
(g7
g3
NtRp1167
(I1
(dp1168
tbsS'g'
g1
(g7
g3
NtRp1169
(I2
(dp1170
tbsS'f'
g1
(g7
g3
NtRp1171
(I5
(dp1172
tbsS'i'
g1
(g7
g3
NtRp1173
(I240
(dp1174
tbsS'h'
g1
(g7
g3
NtRp1175
(I861
(dp1176
tbsS'k'
g1
(g7
g3
NtRp1177
(I197
(dp1178
tbsS'j'
g1
(g7
g3
NtRp1179
(I1
(dp1180
tbsS'm'
g1
(g7
g3
NtRp1181
(I57
(dp1182
tbsS'l'
g1
(g7
g3
NtRp1183
(I96
(dp1184
tbsS'o'
g1
(g7
g3
NtRp1185
(I580
(dp1186
tbsS'n'
g1
(g7
g3
NtRp1187
(I26
(dp1188
tbsS'q'
g1
(g7
g3
NtRp1189
(I7
(dp1190
tbsS'p'
g1
(g7
g3
NtRp1191
(I115
(dp1192
tbsS's'
g1
(g7
g3
NtRp1193
(I232
(dp1194
tbsS'r'
g1
(g7
g3
NtRp1195
(I1
(dp1196
tbsS'u'
g1
(g7
g3
NtRp1197
(I177
(dp1198
tbsS't'
g1
(g7
g3
NtRp1199
(I1085
(dp1200
tbsS'w'
g1
(g7
g3
NtRp1201
(I123
(dp1202
tbsS'v'
g1
(g7
g3
NtRp1203
(I1
(dp1204
tbsS'y'
g1
(g7
g3
NtRp1205
(I15
(dp1206
tbsS'x'
g1
(g7
g3
NtRp1207
(I1
(dp1208
tbsS'z'
g1
(g7
g3
NtRp1209
(I1
(dp1210
tbstbstbsS'r'
g1
(g7
g3
NtRp1211
(g9
(dp1212
S'|'
g1
(g7
g3
NtRp1213
(g9
(dp1214
S' '
g1
(g7
g3
NtRp1215
(I1
(dp1216
tbsS"'"
g1
(g7
g3
NtRp1217
(I11
(dp1218
tbsS'a'
g1
(g7
g3
NtRp1219
(I560
(dp1220
tbsS'c'
g1
(g7
g3
NtRp1221
(I51
(dp1222
tbsS'b'
g1
(g7
g3
NtRp1223
(I9
(dp1224
tbsS'e'
g1
(g7
g3
NtRp1225
(I2349
(dp1226
tbsS'd'
g1
(g7
g3
NtRp1227
(I260
(dp1228
tbsS'g'
g1
(g7
g3
NtRp1229
(I24
(dp1230
tbsS'f'
g1
(g7
g3
NtRp1231
(I45
(dp1232
tbsS'i'
g1
(g7
g3
NtRp1233
(I507
(dp1234
tbsS'h'
g1
(g7
g3
NtRp1235
(I16
(dp1236
tbsS'k'
g1
(g7
g3
NtRp1237
(I105
(dp1238
tbsS'j'
g1
(g7
g3
NtRp1239
(I1
(dp1240
tbsS'm'
g1
(g7
g3
NtRp1241
(I122
(dp1242
tbsS'l'
g1
(g7
g3
NtRp1243
(I160
(dp1244
tbsS'o'
g1
(g7
g3
NtRp1245
(I1339
(dp1246
tbsS'n'
g1
(g7
g3
NtRp1247
(I186
(dp1248
tbsS'q'
g1
(g7
g3
NtRp1249
(I1
(dp1250
tbsS'p'
g1
(g7
g3
NtRp1251
(I60
(dp1252
tbsS's'
g1
(g7
g3
NtRp1253
(I309
(dp1254
tbsS'r'
g1
(g7
g3
NtRp1255
(I171
(dp1256
tbsS'u'
g1
(g7
g3
NtRp1257
(I150
(dp1258
tbsS't'
g1
(g7
g3
NtRp1259
(I286
(dp1260
tbsS'w'
g1
(g7
g3
NtRp1261
(I16
(dp1262
tbsS'v'
g1
(g7
g3
NtRp1263
(I12
(dp1264
tbsS'y'
g1
(g7
g3
NtRp1265
(I354
(dp1266
tbsS'x'
g1
(g7
g3
NtRp1267
(I1
(dp1268
tbsS'z'
g1
(g7
g3
NtRp1269
(I1
(dp1270
tbstbstbsS'u'
g1
(g7
g3
NtRp1271
(g9
(dp1272
S'|'
g1
(g7
g3
NtRp1273
(g9
(dp1274
S' '
g1
(g7
g3
NtRp1275
(I1
(dp1276
tbsS"'"
g1
(g7
g3
NtRp1277
(I7
(dp1278
tbsS'a'
g1
(g7
g3
NtRp1279
(I40
(dp1280
tbsS'c'
g1
(g7
g3
NtRp1281
(I114
(dp1282
tbsS'b'
g1
(g7
g3
NtRp1283
(I22
(dp1284
tbsS'e'
g1
(g7
g3
NtRp1285
(I111
(dp1286
tbsS'd'
g1
(g7
g3
NtRp1287
(I48
(dp1288
tbsS'g'
g1
(g7
g3
NtRp1289
(I244
(dp1290
tbsS'f'
g1
(g7
g3
NtRp1291
(I35
(dp1292
tbsS'i'
g1
(g7
g3
NtRp1293
(I100
(dp1294
tbsS'h'
g1
(g7
g3
NtRp1295
(I1
(dp1296
tbsS'k'
g1
(g7
g3
NtRp1297
(I1
(dp1298
tbsS'j'
g1
(g7
g3
NtRp1299
(I1
(dp1300
tbsS'm'
g1
(g7
g3
NtRp1301
(I49
(dp1302
tbsS'l'
g1
(g7
g3
NtRp1303
(I519
(dp1304
tbsS'o'
g1
(g7
g3
NtRp1305
(I1
(dp1306
tbsS'n'
g1
(g7
g3
NtRp1307
(I525
(dp1308
tbsS'q'
g1
(g7
g3
NtRp1309
(I1
(dp1310
tbsS'p'
g1
(g7
g3
NtRp1311
(I236
(dp1312
tbsS's'
g1
(g7
g3
NtRp1313
(I411
(dp1314
tbsS'r'
g1
(g7
g3
NtRp1315
(I472
(dp1316
tbsS'u'
g1
(g7
g3
NtRp1317
(I1
(dp1318
tbsS't'
g1
(g7
g3
NtRp1319
(I640
(dp1320
tbsS'w'
g1
(g7
g3
NtRp1321
(I1
(dp1322
tbsS'v'
g1
(g7
g3
NtRp1323
(I1
(dp1324
tbsS'y'
g1
(g7
g3
NtRp1325
(I1
(dp1326
tbsS'x'
g1
(g7
g3
NtRp1327
(I1
(dp1328
tbsS'z'
g1
(g7
g3
NtRp1329
(I8
(dp1330
tbstbstbsS't'
g1
(g7
g3
NtRp1331
(g9
(dp1332
S'|'
g1
(g7
g3
NtRp1333
(g9
(dp1334
S' '
g1
(g7
g3
NtRp1335
(I1
(dp1336
tbsS"'"
g1
(g7
g3
NtRp1337
(I15
(dp1338
tbsS'a'
g1
(g7
g3
NtRp1339
(I225
(dp1340
tbsS'c'
g1
(g7
g3
NtRp1341
(I181
(dp1342
tbsS'b'
g1
(g7
g3
NtRp1343
(I1
(dp1344
tbsS'e'
g1
(g7
g3
NtRp1345
(I778
(dp1346
tbsS'd'
g1
(g7
g3
NtRp1347
(I1
(dp1348
tbsS'g'
g1
(g7
g3
NtRp1349
(I1
(dp1350
tbsS'f'
g1
(g7
g3
NtRp1351
(I14
(dp1352
tbsS'i'
g1
(g7
g3
NtRp1353
(I545
(dp1354
tbsS'h'
g1
(g7
g3
NtRp1355
(I6025
(dp1356
tbsS'k'
g1
(g7
g3
NtRp1357
(I1
(dp1358
tbsS'j'
g1
(g7
g3
NtRp1359
(I1
(dp1360
tbsS'm'
g1
(g7
g3
NtRp1361
(I2
(dp1362
tbsS'l'
g1
(g7
g3
NtRp1363
(I266
(dp1364
tbsS'o'
g1
(g7
g3
NtRp1365
(I1665
(dp1366
tbsS'n'
g1
(g7
g3
NtRp1367
(I4
(dp1368
tbsS'q'
g1
(g7
g3
NtRp1369
(I1
(dp1370
tbsS'p'
g1
(g7
g3
NtRp1371
(I1
(dp1372
tbsS's'
g1
(g7
g3
NtRp1373
(I145
(dp1374
tbsS'r'
g1
(g7
g3
NtRp1375
(I405
(dp1376
tbsS'u'
g1
(g7
g3
NtRp1377
(I144
(dp1378
tbsS't'
g1
(g7
g3
NtRp1379
(I295
(dp1380
tbsS'w'
g1
(g7
g3
NtRp1381
(I44
(dp1382
tbsS'v'
g1
(g7
g3
NtRp1383
(I1
(dp1384
tbsS'y'
g1
(g7
g3
NtRp1385
(I159
(dp1386
tbsS'x'
g1
(g7
g3
NtRp1387
(I1
(dp1388
tbsS'z'
g1
(g7
g3
NtRp1389
(I1
(dp1390
tbstbstbsS'w'
g1
(g7
g3
NtRp1391
(g9
(dp1392
S'|'
g1
(g7
g3
NtRp1393
(g9
(dp1394
S' '
g1
(g7
g3
NtRp1395
(I1
(dp1396
tbsS"'"
g1
(g7
g3
NtRp1397
(I8
(dp1398
tbsS'a'
g1
(g7
g3
NtRp1399
(I959
(dp1400
tbsS'c'
g1
(g7
g3
NtRp1401
(I1
(dp1402
tbsS'b'
g1
(g7
g3
NtRp1403
(I1
(dp1404
tbsS'e'
g1
(g7
g3
NtRp1405
(I775
(dp1406
tbsS'd'
g1
(g7
g3
NtRp1407
(I6
(dp1408
tbsS'g'
g1
(g7
g3
NtRp1409
(I1
(dp1410
tbsS'f'
g1
(g7
g3
NtRp1411
(I10
(dp1412
tbsS'i'
g1
(g7
g3
NtRp1413
(I940
(dp1414
tbsS'h'
g1
(g7
g3
NtRp1415
(I685
(dp1416
tbsS'k'
g1
(g7
g3
NtRp1417
(I3
(dp1418
tbsS'j'
g1
(g7
g3
NtRp1419
(I1
(dp1420
tbsS'm'
g1
(g7
g3
NtRp1421
(I1
(dp1422
tbsS'l'
g1
(g7
g3
NtRp1423
(I25
(dp1424
tbsS'o'
g1
(g7
g3
NtRp1425
(I525
(dp1426
tbsS'n'
g1
(g7
g3
NtRp1427
(I157
(dp1428
tbsS'q'
g1
(g7
g3
NtRp1429
(I1
(dp1430
tbsS'p'
g1
(g7
g3
NtRp1431
(I1
(dp1432
tbsS's'
g1
(g7
g3
NtRp1433
(I40
(dp1434
tbsS'r'
g1
(g7
g3
NtRp1435
(I13
(dp1436
tbsS'u'
g1
(g7
g3
NtRp1437
(I3
(dp1438
tbsS't'
g1
(g7
g3
NtRp1439
(I1
(dp1440
tbsS'w'
g1
(g7
g3
NtRp1441
(I1
(dp1442
tbsS'v'
g1
(g7
g3
NtRp1443
(I1
(dp1444
tbsS'y'
g1
(g7
g3
NtRp1445
(I1
(dp1446
tbsS'x'
g1
(g7
g3
NtRp1447
(I1
(dp1448
tbsS'z'
g1
(g7
g3
NtRp1449
(I1
(dp1450
tbstbstbsS'v'
g1
(g7
g3
NtRp1451
(g9
(dp1452
S'|'
g1
(g7
g3
NtRp1453
(g9
(dp1454
S' '
g1
(g7
g3
NtRp1455
(I1
(dp1456
tbsS"'"
g1
(g7
g3
NtRp1457
(I1
(dp1458
tbsS'a'
g1
(g7
g3
NtRp1459
(I5
(dp1460
tbsS'c'
g1
(g7
g3
NtRp1461
(I1
(dp1462
tbsS'b'
g1
(g7
g3
NtRp1463
(I1
(dp1464
tbsS'e'
g1
(g7
g3
NtRp1465
(I1034
(dp1466
tbsS'd'
g1
(g7
g3
NtRp1467
(I1
(dp1468
tbsS'g'
g1
(g7
g3
NtRp1469
(I1
(dp1470
tbsS'f'
g1
(g7
g3
NtRp1471
(I1
(dp1472
tbsS'i'
g1
(g7
g3
NtRp1473
(I63
(dp1474
tbsS'h'
g1
(g7
g3
NtRp1475
(I1
(dp1476
tbsS'k'
g1
(g7
g3
NtRp1477
(I1
(dp1478
tbsS'j'
g1
(g7
g3
NtRp1479
(I1
(dp1480
tbsS'm'
g1
(g7
g3
NtRp1481
(I1
(dp1482
tbsS'l'
g1
(g7
g3
NtRp1483
(I1
(dp1484
tbsS'o'
g1
(g7
g3
NtRp1485
(I39
(dp1486
tbsS'n'
g1
(g7
g3
NtRp1487
(I1
(dp1488
tbsS'q'
g1
(g7
g3
NtRp1489
(I1
(dp1490
tbsS'p'
g1
(g7
g3
NtRp1491
(I1
(dp1492
tbsS's'
g1
(g7
g3
NtRp1493
(I1
(dp1494
tbsS'r'
g1
(g7
g3
NtRp1495
(I1
(dp1496
tbsS'u'
g1
(g7
g3
NtRp1497
(I1
(dp1498
tbsS't'
g1
(g7
g3
NtRp1499
(I1
(dp1500
tbsS'w'
g1
(g7
g3
NtRp1501
(I1
(dp1502
tbsS'v'
g1
(g7
g3
NtRp1503
(I1
(dp1504
tbsS'y'
g1
(g7
g3
NtRp1505
(I10
(dp1506
tbsS'x'
g1
(g7
g3
NtRp1507
(I1
(dp1508
tbsS'z'
g1
(g7
g3
NtRp1509
(I1
(dp1510
tbstbstbsS'y'
g1
(g7
g3
NtRp1511
(g9
(dp1512
S'|'
g1
(g7
g3
NtRp1513
(g9
(dp1514
S' '
g1
(g7
g3
NtRp1515
(I1
(dp1516
tbsS"'"
g1
(g7
g3
NtRp1517
(I23
(dp1518
tbsS'a'
g1
(g7
g3
NtRp1519
(I11
(dp1520
tbsS'c'
g1
(g7
g3
NtRp1521
(I16
(dp1522
tbsS'b'
g1
(g7
g3
NtRp1523
(I5
(dp1524
tbsS'e'
g1
(g7
g3
NtRp1525
(I178
(dp1526
tbsS'd'
g1
(g7
g3
NtRp1527
(I1
(dp1528
tbsS'g'
g1
(g7
g3
NtRp1529
(I1
(dp1530
tbsS'f'
g1
(g7
g3
NtRp1531
(I6
(dp1532
tbsS'i'
g1
(g7
g3
NtRp1533
(I48
(dp1534
tbsS'h'
g1
(g7
g3
NtRp1535
(I1
(dp1536
tbsS'k'
g1
(g7
g3
NtRp1537
(I1
(dp1538
tbsS'j'
g1
(g7
g3
NtRp1539
(I1
(dp1540
tbsS'm'
g1
(g7
g3
NtRp1541
(I1
(dp1542
tbsS'l'
g1
(g7
g3
NtRp1543
(I4
(dp1544
tbsS'o'
g1
(g7
g3
NtRp1545
(I614
(dp1546
tbsS'n'
g1
(g7
g3
NtRp1547
(I1
(dp1548
tbsS'q'
g1
(g7
g3
NtRp1549
(I1
(dp1550
tbsS'p'
g1
(g7
g3
NtRp1551
(I1
(dp1552
tbsS's'
g1
(g7
g3
NtRp1553
(I94
(dp1554
tbsS'r'
g1
(g7
g3
NtRp1555
(I1
(dp1556
tbsS'u'
g1
(g7
g3
NtRp1557
(I1
(dp1558
tbsS't'
g1
(g7
g3
NtRp1559
(I39
(dp1560
tbsS'w'
g1
(g7
g3
NtRp1561
(I11
(dp1562
tbsS'v'
g1
(g7
g3
NtRp1563
(I1
(dp1564
tbsS'y'
g1
(g7
g3
NtRp1565
(I1
(dp1566
tbsS'x'
g1
(g7
g3
NtRp1567
(I1
(dp1568
tbsS'z'
g1
(g7
g3
NtRp1569
(I1
(dp1570
tbstbstbsS'x'
g1
(g7
g3
NtRp1571
(g9
(dp1572
S'|'
g1
(g7
g3
NtRp1573
(g9
(dp1574
S' '
g1
(g7
g3
NtRp1575
(I1
(dp1576
tbsS"'"
g1
(g7
g3
NtRp1577
(I1
(dp1578
tbsS'a'
g1
(g7
g3
NtRp1579
(I9
(dp1580
tbsS'c'
g1
(g7
g3
NtRp1581
(I25
(dp1582
tbsS'b'
g1
(g7
g3
NtRp1583
(I1
(dp1584
tbsS'e'
g1
(g7
g3
NtRp1585
(I34
(dp1586
tbsS'd'
g1
(g7
g3
NtRp1587
(I1
(dp1588
tbsS'g'
g1
(g7
g3
NtRp1589
(I1
(dp1590
tbsS'f'
g1
(g7
g3
NtRp1591
(I1
(dp1592
tbsS'i'
g1
(g7
g3
NtRp1593
(I17
(dp1594
tbsS'h'
g1
(g7
g3
NtRp1595
(I2
(dp1596
tbsS'k'
g1
(g7
g3
NtRp1597
(I1
(dp1598
tbsS'j'
g1
(g7
g3
NtRp1599
(I1
(dp1600
tbsS'm'
g1
(g7
g3
NtRp1601
(I1
(dp1602
tbsS'l'
g1
(g7
g3
NtRp1603
(I1
(dp1604
tbsS'o'
g1
(g7
g3
NtRp1605
(I1
(dp1606
tbsS'n'
g1
(g7
g3
NtRp1607
(I1
(dp1608
tbsS'q'
g1
(g7
g3
NtRp1609
(I1
(dp1610
tbsS'p'
g1
(g7
g3
NtRp1611
(I17
(dp1612
tbsS's'
g1
(g7
g3
NtRp1613
(I1
(dp1614
tbsS'r'
g1
(g7
g3
NtRp1615
(I1
(dp1616
tbsS'u'
g1
(g7
g3
NtRp1617
(I1
(dp1618
tbsS't'
g1
(g7
g3
NtRp1619
(I35
(dp1620
tbsS'w'
g1
(g7
g3
NtRp1621
(I1
(dp1622
tbsS'v'
g1
(g7
g3
NtRp1623
(I1
(dp1624
tbsS'y'
g1
(g7
g3
NtRp1625
(I1
(dp1626
tbsS'x'
g1
(g7
g3
NtRp1627
(I1
(dp1628
tbsS'z'
g1
(g7
g3
NtRp1629
(I1
(dp1630
tbstbstbsS'z'
g1
(g7
g3
NtRp1631
(g9
(dp1632
S'|'
g1
(g7
g3
NtRp1633
(g9
(dp1634
S' '
g1
(g7
g3
NtRp1635
(I1
(dp1636
tbsS"'"
g1
(g7
g3
NtRp1637
(I1
(dp1638
tbsS'a'
g1
(g7
g3
NtRp1639
(I42
(dp1640
tbsS'c'
g1
(g7
g3
NtRp1641
(I1
(dp1642
tbsS'b'
g1
(g7
g3
NtRp1643
(I1
(dp1644
tbsS'e'
g1
(g7
g3
NtRp1645
(I28
(dp1646
tbsS'd'
g1
(g7
g3
NtRp1647
(I1
(dp1648
tbsS'g'
g1
(g7
g3
NtRp1649
(I1
(dp1650
tbsS'f'
g1
(g7
g3
NtRp1651
(I1
(dp1652
tbsS'i'
g1
(g7
g3
NtRp1653
(I7
(dp1654
tbsS'h'
g1
(g7
g3
NtRp1655
(I1
(dp1656
tbsS'k'
g1
(g7
g3
NtRp1657
(I1
(dp1658
tbsS'j'
g1
(g7
g3
NtRp1659
(I1
(dp1660
tbsS'm'
g1
(g7
g3
NtRp1661
(I1
(dp1662
tbsS'l'
g1
(g7
g3
NtRp1663
(I7
(dp1664
tbsS'o'
g1
(g7
g3
NtRp1665
(I1
(dp1666
tbsS'n'
g1
(g7
g3
NtRp1667
(I1
(dp1668
tbsS'q'
g1
(g7
g3
NtRp1669
(I1
(dp1670
tbsS'p'
g1
(g7
g3
NtRp1671
(I1
(dp1672
tbsS's'
g1
(g7
g3
NtRp1673
(I1
(dp1674
tbsS'r'
g1
(g7
g3
NtRp1675
(I1
(dp1676
tbsS'u'
g1
(g7
g3
NtRp1677
(I3
(dp1678
tbsS't'
g1
(g7
g3
NtRp1679
(I2
(dp1680
tbsS'w'
g1
(g7
g3
NtRp1681
(I1
(dp1682
tbsS'v'
g1
(g7
g3
NtRp1683
(I1
(dp1684
tbsS'y'
g1
(g7
g3
NtRp1685
(I8
(dp1686
tbsS'x'
g1
(g7
g3
NtRp1687
(I1
(dp1688
tbsS'z'
g1
(g7
g3
NtRp1689
(I13
(dp1690
tbstbstbstbsb.