ccopy_reg
_reconstructor
p1
(cpytrie
StringTrie
p2
c__builtin__
object
p3
NtRp4
(dp5
S'_root'
p6
g1
(cpytrie
Node
p7
g3
NtRp8
(cpytrie
NULL
p9
(dp10
S'a'
g1
(g7
g3
NtRp11
(g9
(dp12
S'|'
g1
(g7
g3
NtRp13
(g9
(dp14
S"'"
g1
(g7
g3
NtRp15
(F0.018330252618607518
(dp16
tbsS'a'
g1
(g7
g3
NtRp17
(F0.9797443006777572
(dp18
tbsS'c'
g1
(g7
g3
NtRp19
(F7.7017868145409739e-05
(dp20
tbsS'b'
g1
(g7
g3
NtRp21
(F7.7017868145409739e-05
(dp22
tbsS'e'
g1
(g7
g3
NtRp23
(F7.7017868145409739e-05
(dp24
tbsS'd'
g1
(g7
g3
NtRp25
(F7.7017868145409739e-05
(dp26
tbsS'g'
g1
(g7
g3
NtRp27
(F7.7017868145409739e-05
(dp28
tbsS'f'
g1
(g7
g3
NtRp29
(F7.7017868145409739e-05
(dp30
tbsS'i'
g1
(g7
g3
NtRp31
(F7.7017868145409739e-05
(dp32
tbsS'h'
g1
(g7
g3
NtRp33
(F7.7017868145409739e-05
(dp34
tbsS'k'
g1
(g7
g3
NtRp35
(F7.7017868145409739e-05
(dp36
tbsS'j'
g1
(g7
g3
NtRp37
(F7.7017868145409739e-05
(dp38
tbsS'm'
g1
(g7
g3
NtRp39
(F7.7017868145409739e-05
(dp40
tbsS'l'
g1
(g7
g3
NtRp41
(F7.7017868145409739e-05
(dp42
tbsS'o'
g1
(g7
g3
NtRp43
(F7.7017868145409739e-05
(dp44
tbsS'n'
g1
(g7
g3
NtRp45
(F7.7017868145409739e-05
(dp46
tbsS'q'
g1
(g7
g3
NtRp47
(F7.7017868145409739e-05
(dp48
tbsS'p'
g1
(g7
g3
NtRp49
(F7.7017868145409739e-05
(dp50
tbsS's'
g1
(g7
g3
NtRp51
(F7.7017868145409739e-05
(dp52
tbsS'r'
g1
(g7
g3
NtRp53
(F7.7017868145409739e-05
(dp54
tbsS'u'
g1
(g7
g3
NtRp55
(F7.7017868145409739e-05
(dp56
tbsS't'
g1
(g7
g3
NtRp57
(F7.7017868145409739e-05
(dp58
tbsS'w'
g1
(g7
g3
NtRp59
(F7.7017868145409739e-05
(dp60
tbsS'v'
g1
(g7
g3
NtRp61
(F7.7017868145409739e-05
(dp62
tbsS'y'
g1
(g7
g3
NtRp63
(F7.7017868145409739e-05
(dp64
tbsS'x'
g1
(g7
g3
NtRp65
(F7.7017868145409739e-05
(dp66
tbsS'z'
g1
(g7
g3
NtRp67
(F7.7017868145409739e-05
(dp68
tbstbstbsS'c'
g1
(g7
g3
NtRp69
(g9
(dp70
S'|'
g1
(g7
g3
NtRp71
(g9
(dp72
S"'"
g1
(g7
g3
NtRp73
(F0.00028661507595299513
(dp74
tbsS'a'
g1
(g7
g3
NtRp75
(F0.00028661507595299513
(dp76
tbsS'c'
g1
(g7
g3
NtRp77
(F0.99254800802522214
(dp78
tbsS'b'
g1
(g7
g3
NtRp79
(F0.00028661507595299513
(dp80
tbsS'e'
g1
(g7
g3
NtRp81
(F0.00028661507595299513
(dp82
tbsS'd'
g1
(g7
g3
NtRp83
(F0.00028661507595299513
(dp84
tbsS'g'
g1
(g7
g3
NtRp85
(F0.00028661507595299513
(dp86
tbsS'f'
g1
(g7
g3
NtRp87
(F0.00028661507595299513
(dp88
tbsS'i'
g1
(g7
g3
NtRp89
(F0.00028661507595299513
(dp90
tbsS'h'
g1
(g7
g3
NtRp91
(F0.00028661507595299513
(dp92
tbsS'k'
g1
(g7
g3
NtRp93
(F0.00028661507595299513
(dp94
tbsS'j'
g1
(g7
g3
NtRp95
(F0.00028661507595299513
(dp96
tbsS'm'
g1
(g7
g3
NtRp97
(F0.00028661507595299513
(dp98
tbsS'l'
g1
(g7
g3
NtRp99
(F0.00028661507595299513
(dp100
tbsS'o'
g1
(g7
g3
NtRp101
(F0.00028661507595299513
(dp102
tbsS'n'
g1
(g7
g3
NtRp103
(F0.00028661507595299513
(dp104
tbsS'q'
g1
(g7
g3
NtRp105
(F0.00028661507595299513
(dp106
tbsS'p'
g1
(g7
g3
NtRp107
(F0.00028661507595299513
(dp108
tbsS's'
g1
(g7
g3
NtRp109
(F0.00028661507595299513
(dp110
tbsS'r'
g1
(g7
g3
NtRp111
(F0.00028661507595299513
(dp112
tbsS'u'
g1
(g7
g3
NtRp113
(F0.00028661507595299513
(dp114
tbsS't'
g1
(g7
g3
NtRp115
(F0.00028661507595299513
(dp116
tbsS'w'
g1
(g7
g3
NtRp117
(F0.00028661507595299513
(dp118
tbsS'v'
g1
(g7
g3
NtRp119
(F0.00028661507595299513
(dp120
tbsS'y'
g1
(g7
g3
NtRp121
(F0.00028661507595299513
(dp122
tbsS'x'
g1
(g7
g3
NtRp123
(F0.00028661507595299513
(dp124
tbsS'z'
g1
(g7
g3
NtRp125
(F0.00028661507595299513
(dp126
tbstbstbsS'b'
g1
(g7
g3
NtRp127
(g9
(dp128
S'|'
g1
(g7
g3
NtRp129
(g9
(dp130
S"'"
g1
(g7
g3
NtRp131
(F0.00045745654162854531
(dp132
tbsS'a'
g1
(g7
g3
NtRp133
(F0.00045745654162854531
(dp134
tbsS'c'
g1
(g7
g3
NtRp135
(F0.00045745654162854531
(dp136
tbsS'b'
g1
(g7
g3
NtRp137
(F0.98810612991765778
(dp138
tbsS'e'
g1
(g7
g3
NtRp139
(F0.00045745654162854531
(dp140
tbsS'd'
g1
(g7
g3
NtRp141
(F0.00045745654162854531
(dp142
tbsS'g'
g1
(g7
g3
NtRp143
(F0.00045745654162854531
(dp144
tbsS'f'
g1
(g7
g3
NtRp145
(F0.00045745654162854531
(dp146
tbsS'i'
g1
(g7
g3
NtRp147
(F0.00045745654162854531
(dp148
tbsS'h'
g1
(g7
g3
NtRp149
(F0.00045745654162854531
(dp150
tbsS'k'
g1
(g7
g3
NtRp151
(F0.00045745654162854531
(dp152
tbsS'j'
g1
(g7
g3
NtRp153
(F0.00045745654162854531
(dp154
tbsS'm'
g1
(g7
g3
NtRp155
(F0.00045745654162854531
(dp156
tbsS'l'
g1
(g7
g3
NtRp157
(F0.00045745654162854531
(dp158
tbsS'o'
g1
(g7
g3
NtRp159
(F0.00045745654162854531
(dp160
tbsS'n'
g1
(g7
g3
NtRp161
(F0.00045745654162854531
(dp162
tbsS'q'
g1
(g7
g3
NtRp163
(F0.00045745654162854531
(dp164
tbsS'p'
g1
(g7
g3
NtRp165
(F0.00045745654162854531
(dp166
tbsS's'
g1
(g7
g3
NtRp167
(F0.00045745654162854531
(dp168
tbsS'r'
g1
(g7
g3
NtRp169
(F0.00045745654162854531
(dp170
tbsS'u'
g1
(g7
g3
NtRp171
(F0.00045745654162854531
(dp172
tbsS't'
g1
(g7
g3
NtRp173
(F0.00045745654162854531
(dp174
tbsS'w'
g1
(g7
g3
NtRp175
(F0.00045745654162854531
(dp176
tbsS'v'
g1
(g7
g3
NtRp177
(F0.00045745654162854531
(dp178
tbsS'y'
g1
(g7
g3
NtRp179
(F0.00045745654162854531
(dp180
tbsS'x'
g1
(g7
g3
NtRp181
(F0.00045745654162854531
(dp182
tbsS'z'
g1
(g7
g3
NtRp183
(F0.00045745654162854531
(dp184
tbstbstbsS'e'
g1
(g7
g3
NtRp185
(g9
(dp186
S'|'
g1
(g7
g3
NtRp187
(g9
(dp188
S"'"
g1
(g7
g3
NtRp189
(F3.4153005464480874e-05
(dp190
tbsS'a'
g1
(g7
g3
NtRp191
(F3.4153005464480874e-05
(dp192
tbsS'c'
g1
(g7
g3
NtRp193
(F3.4153005464480874e-05
(dp194
tbsS'b'
g1
(g7
g3
NtRp195
(F3.4153005464480874e-05
(dp196
tbsS'e'
g1
(g7
g3
NtRp197
(F0.68883196721311479
(dp198
tbsS'd'
g1
(g7
g3
NtRp199
(F3.4153005464480874e-05
(dp200
tbsS'g'
g1
(g7
g3
NtRp201
(F3.4153005464480874e-05
(dp202
tbsS'f'
g1
(g7
g3
NtRp203
(F3.4153005464480874e-05
(dp204
tbsS'i'
g1
(g7
g3
NtRp205
(F0.31031420765027323
(dp206
tbsS'h'
g1
(g7
g3
NtRp207
(F3.4153005464480874e-05
(dp208
tbsS'k'
g1
(g7
g3
NtRp209
(F3.4153005464480874e-05
(dp210
tbsS'j'
g1
(g7
g3
NtRp211
(F3.4153005464480874e-05
(dp212
tbsS'm'
g1
(g7
g3
NtRp213
(F3.4153005464480874e-05
(dp214
tbsS'l'
g1
(g7
g3
NtRp215
(F3.4153005464480874e-05
(dp216
tbsS'o'
g1
(g7
g3
NtRp217
(F3.4153005464480874e-05
(dp218
tbsS'n'
g1
(g7
g3
NtRp219
(F3.4153005464480874e-05
(dp220
tbsS'q'
g1
(g7
g3
NtRp221
(F3.4153005464480874e-05
(dp222
tbsS'p'
g1
(g7
g3
NtRp223
(F3.4153005464480874e-05
(dp224
tbsS's'
g1
(g7
g3
NtRp225
(F3.4153005464480874e-05
(dp226
tbsS'r'
g1
(g7
g3
NtRp227
(F3.4153005464480874e-05
(dp228
tbsS'u'
g1
(g7
g3
NtRp229
(F3.4153005464480874e-05
(dp230
tbsS't'
g1
(g7
g3
NtRp231
(F3.4153005464480874e-05
(dp232
tbsS'w'
g1
(g7
g3
NtRp233
(F3.4153005464480874e-05
(dp234
tbsS'v'
g1
(g7
g3
NtRp235
(F3.4153005464480874e-05
(dp236
tbsS'y'
g1
(g7
g3
NtRp237
(F3.4153005464480874e-05
(dp238
tbsS'x'
g1
(g7
g3
NtRp239
(F3.4153005464480874e-05
(dp240
tbsS'z'
g1
(g7
g3
NtRp241
(F3.4153005464480874e-05
(dp242
tbstbstbsS'd'
g1
(g7
g3
NtRp243
(g9
(dp244
S'|'
g1
(g7
g3
NtRp245
(g9
(dp246
S"'"
g1
(g7
g3
NtRp247
(F9.9235883695544306e-05
(dp248
tbsS'a'
g1
(g7
g3
NtRp249
(F9.9235883695544306e-05
(dp250
tbsS'c'
g1
(g7
g3
NtRp251
(F9.9235883695544306e-05
(dp252
tbsS'b'
g1
(g7
g3
NtRp253
(F9.9235883695544306e-05
(dp254
tbsS'e'
g1
(g7
g3
NtRp255
(F9.9235883695544306e-05
(dp256
tbsS'd'
g1
(g7
g3
NtRp257
(F0.82177235288280237
(dp258
tbsS'g'
g1
(g7
g3
NtRp259
(F9.9235883695544306e-05
(dp260
tbsS'f'
g1
(g7
g3
NtRp261
(F9.9235883695544306e-05
(dp262
tbsS'i'
g1
(g7
g3
NtRp263
(F9.9235883695544306e-05
(dp264
tbsS'h'
g1
(g7
g3
NtRp265
(F9.9235883695544306e-05
(dp266
tbsS'k'
g1
(g7
g3
NtRp267
(F0.17574675002480897
(dp268
tbsS'j'
g1
(g7
g3
NtRp269
(F9.9235883695544306e-05
(dp270
tbsS'm'
g1
(g7
g3
NtRp271
(F9.9235883695544306e-05
(dp272
tbsS'l'
g1
(g7
g3
NtRp273
(F9.9235883695544306e-05
(dp274
tbsS'o'
g1
(g7
g3
NtRp275
(F9.9235883695544306e-05
(dp276
tbsS'n'
g1
(g7
g3
NtRp277
(F9.9235883695544306e-05
(dp278
tbsS'q'
g1
(g7
g3
NtRp279
(F9.9235883695544306e-05
(dp280
tbsS'p'
g1
(g7
g3
NtRp281
(F9.9235883695544306e-05
(dp282
tbsS's'
g1
(g7
g3
NtRp283
(F9.9235883695544306e-05
(dp284
tbsS'r'
g1
(g7
g3
NtRp285
(F9.9235883695544306e-05
(dp286
tbsS'u'
g1
(g7
g3
NtRp287
(F9.9235883695544306e-05
(dp288
tbsS't'
g1
(g7
g3
NtRp289
(F9.9235883695544306e-05
(dp290
tbsS'w'
g1
(g7
g3
NtRp291
(F9.9235883695544306e-05
(dp292
tbsS'v'
g1
(g7
g3
NtRp293
(F9.9235883695544306e-05
(dp294
tbsS'y'
g1
(g7
g3
NtRp295
(F9.9235883695544306e-05
(dp296
tbsS'x'
g1
(g7
g3
NtRp297
(F9.9235883695544306e-05
(dp298
tbsS'z'
g1
(g7
g3
NtRp299
(F9.9235883695544306e-05
(dp300
tbstbstbsS'g'
g1
(g7
g3
NtRp301
(g9
(dp302
S'|'
g1
(g7
g3
NtRp303
(g9
(dp304
S"'"
g1
(g7
g3
NtRp305
(F6.9204152249134954e-05
(dp306
tbsS'a'
g1
(g7
g3
NtRp307
(F6.9204152249134954e-05
(dp308
tbsS'c'
g1
(g7
g3
NtRp309
(F6.9204152249134954e-05
(dp310
tbsS'b'
g1
(g7
g3
NtRp311
(F6.9204152249134954e-05
(dp312
tbsS'e'
g1
(g7
g3
NtRp313
(F6.9204152249134954e-05
(dp314
tbsS'd'
g1
(g7
g3
NtRp315
(F6.9204152249134954e-05
(dp316
tbsS'g'
g1
(g7
g3
NtRp317
(F0.21709342560553632
(dp318
tbsS'f'
g1
(g7
g3
NtRp319
(F6.9204152249134954e-05
(dp320
tbsS'i'
g1
(g7
g3
NtRp321
(F6.9204152249134954e-05
(dp322
tbsS'h'
g1
(g7
g3
NtRp323
(F0.78117647058823525
(dp324
tbsS'k'
g1
(g7
g3
NtRp325
(F6.9204152249134954e-05
(dp326
tbsS'j'
g1
(g7
g3
NtRp327
(F6.9204152249134954e-05
(dp328
tbsS'm'
g1
(g7
g3
NtRp329
(F6.9204152249134954e-05
(dp330
tbsS'l'
g1
(g7
g3
NtRp331
(F6.9204152249134954e-05
(dp332
tbsS'o'
g1
(g7
g3
NtRp333
(F6.9204152249134954e-05
(dp334
tbsS'n'
g1
(g7
g3
NtRp335
(F6.9204152249134954e-05
(dp336
tbsS'q'
g1
(g7
g3
NtRp337
(F6.9204152249134954e-05
(dp338
tbsS'p'
g1
(g7
g3
NtRp339
(F6.9204152249134954e-05
(dp340
tbsS's'
g1
(g7
g3
NtRp341
(F6.9204152249134954e-05
(dp342
tbsS'r'
g1
(g7
g3
NtRp343
(F6.9204152249134954e-05
(dp344
tbsS'u'
g1
(g7
g3
NtRp345
(F6.9204152249134954e-05
(dp346
tbsS't'
g1
(g7
g3
NtRp347
(F6.9204152249134954e-05
(dp348
tbsS'w'
g1
(g7
g3
NtRp349
(F6.9204152249134954e-05
(dp350
tbsS'v'
g1
(g7
g3
NtRp351
(F6.9204152249134954e-05
(dp352
tbsS'y'
g1
(g7
g3
NtRp353
(F6.9204152249134954e-05
(dp354
tbsS'x'
g1
(g7
g3
NtRp355
(F6.9204152249134954e-05
(dp356
tbsS'z'
g1
(g7
g3
NtRp357
(F6.9204152249134954e-05
(dp358
tbstbstbsS'f'
g1
(g7
g3
NtRp359
(g9
(dp360
S'|'
g1
(g7
g3
NtRp361
(g9
(dp362
S"'"
g1
(g7
g3
NtRp363
(F0.00029985007496251872
(dp364
tbsS'a'
g1
(g7
g3
NtRp365
(F0.00029985007496251872
(dp366
tbsS'c'
g1
(g7
g3
NtRp367
(F0.00029985007496251872
(dp368
tbsS'b'
g1
(g7
g3
NtRp369
(F0.00029985007496251872
(dp370
tbsS'e'
g1
(g7
g3
NtRp371
(F0.00029985007496251872
(dp372
tbsS'd'
g1
(g7
g3
NtRp373
(F0.00029985007496251872
(dp374
tbsS'g'
g1
(g7
g3
NtRp375
(F0.00029985007496251872
(dp376
tbsS'f'
g1
(g7
g3
NtRp377
(F0.94752623688155924
(dp378
tbsS'i'
g1
(g7
g3
NtRp379
(F0.00029985007496251872
(dp380
tbsS'h'
g1
(g7
g3
NtRp381
(F0.00029985007496251872
(dp382
tbsS'k'
g1
(g7
g3
NtRp383
(F0.00029985007496251872
(dp384
tbsS'j'
g1
(g7
g3
NtRp385
(F0.044977511244377814
(dp386
tbsS'm'
g1
(g7
g3
NtRp387
(F0.00029985007496251872
(dp388
tbsS'l'
g1
(g7
g3
NtRp389
(F0.00029985007496251872
(dp390
tbsS'o'
g1
(g7
g3
NtRp391
(F0.00029985007496251872
(dp392
tbsS'n'
g1
(g7
g3
NtRp393
(F0.00029985007496251872
(dp394
tbsS'q'
g1
(g7
g3
NtRp395
(F0.00029985007496251872
(dp396
tbsS'p'
g1
(g7
g3
NtRp397
(F0.00029985007496251872
(dp398
tbsS's'
g1
(g7
g3
NtRp399
(F0.00029985007496251872
(dp400
tbsS'r'
g1
(g7
g3
NtRp401
(F0.00029985007496251872
(dp402
tbsS'u'
g1
(g7
g3
NtRp403
(F0.00029985007496251872
(dp404
tbsS't'
g1
(g7
g3
NtRp405
(F0.00029985007496251872
(dp406
tbsS'w'
g1
(g7
g3
NtRp407
(F0.00029985007496251872
(dp408
tbsS'v'
g1
(g7
g3
NtRp409
(F0.00029985007496251872
(dp410
tbsS'y'
g1
(g7
g3
NtRp411
(F0.00029985007496251872
(dp412
tbsS'x'
g1
(g7
g3
NtRp413
(F0.00029985007496251872
(dp414
tbsS'z'
g1
(g7
g3
NtRp415
(F0.00029985007496251872
(dp416
tbstbstbsS'q'
g1
(g7
g3
NtRp417
(g9
(dp418
S'|'
g1
(g7
g3
NtRp419
(g9
(dp420
S"'"
g1
(g7
g3
NtRp421
(F0.00046882325363338024
(dp422
tbsS'a'
g1
(g7
g3
NtRp423
(F0.00046882325363338024
(dp424
tbsS'c'
g1
(g7
g3
NtRp425
(F0.00046882325363338024
(dp426
tbsS'b'
g1
(g7
g3
NtRp427
(F0.00046882325363338024
(dp428
tbsS'e'
g1
(g7
g3
NtRp429
(F0.00046882325363338024
(dp430
tbsS'd'
g1
(g7
g3
NtRp431
(F0.00046882325363338024
(dp432
tbsS'g'
g1
(g7
g3
NtRp433
(F0.00046882325363338024
(dp434
tbsS'f'
g1
(g7
g3
NtRp435
(F0.00046882325363338024
(dp436
tbsS'i'
g1
(g7
g3
NtRp437
(F0.00046882325363338024
(dp438
tbsS'h'
g1
(g7
g3
NtRp439
(F0.00046882325363338024
(dp440
tbsS'k'
g1
(g7
g3
NtRp441
(F0.00046882325363338024
(dp442
tbsS'j'
g1
(g7
g3
NtRp443
(F0.00046882325363338024
(dp444
tbsS'm'
g1
(g7
g3
NtRp445
(F0.00046882325363338024
(dp446
tbsS'l'
g1
(g7
g3
NtRp447
(F0.00046882325363338024
(dp448
tbsS'o'
g1
(g7
g3
NtRp449
(F0.00046882325363338024
(dp450
tbsS'n'
g1
(g7
g3
NtRp451
(F0.00046882325363338024
(dp452
tbsS'q'
g1
(g7
g3
NtRp453
(F0.061884669479606191
(dp454
tbsS'p'
g1
(g7
g3
NtRp455
(F0.92639474917955933
(dp456
tbsS's'
g1
(g7
g3
NtRp457
(F0.00046882325363338024
(dp458
tbsS'r'
g1
(g7
g3
NtRp459
(F0.00046882325363338024
(dp460
tbsS'u'
g1
(g7
g3
NtRp461
(F0.00046882325363338024
(dp462
tbsS't'
g1
(g7
g3
NtRp463
(F0.00046882325363338024
(dp464
tbsS'w'
g1
(g7
g3
NtRp465
(F0.00046882325363338024
(dp466
tbsS'v'
g1
(g7
g3
NtRp467
(F0.00046882325363338024
(dp468
tbsS'y'
g1
(g7
g3
NtRp469
(F0.00046882325363338024
(dp470
tbsS'x'
g1
(g7
g3
NtRp471
(F0.00046882325363338024
(dp472
tbsS'z'
g1
(g7
g3
NtRp473
(F0.00046882325363338024
(dp474
tbstbstbsS's'
g1
(g7
g3
NtRp475
(g9
(dp476
S'|'
g1
(g7
g3
NtRp477
(g9
(dp478
S"'"
g1
(g7
g3
NtRp479
(F6.40861317610869e-05
(dp480
tbsS'a'
g1
(g7
g3
NtRp481
(F6.40861317610869e-05
(dp482
tbsS'c'
g1
(g7
g3
NtRp483
(F6.40861317610869e-05
(dp484
tbsS'b'
g1
(g7
g3
NtRp485
(F6.40861317610869e-05
(dp486
tbsS'e'
g1
(g7
g3
NtRp487
(F6.40861317610869e-05
(dp488
tbsS'd'
g1
(g7
g3
NtRp489
(F6.40861317610869e-05
(dp490
tbsS'g'
g1
(g7
g3
NtRp491
(F6.40861317610869e-05
(dp492
tbsS'f'
g1
(g7
g3
NtRp493
(F6.40861317610869e-05
(dp494
tbsS'i'
g1
(g7
g3
NtRp495
(F6.40861317610869e-05
(dp496
tbsS'h'
g1
(g7
g3
NtRp497
(F6.40861317610869e-05
(dp498
tbsS'k'
g1
(g7
g3
NtRp499
(F6.40861317610869e-05
(dp500
tbsS'j'
g1
(g7
g3
NtRp501
(F6.40861317610869e-05
(dp502
tbsS'm'
g1
(g7
g3
NtRp503
(F6.40861317610869e-05
(dp504
tbsS'l'
g1
(g7
g3
NtRp505
(F0.43033837477569853
(dp506
tbsS'o'
g1
(g7
g3
NtRp507
(F6.40861317610869e-05
(dp508
tbsS'n'
g1
(g7
g3
NtRp509
(F6.40861317610869e-05
(dp510
tbsS'q'
g1
(g7
g3
NtRp511
(F6.40861317610869e-05
(dp512
tbsS'p'
g1
(g7
g3
NtRp513
(F6.40861317610869e-05
(dp514
tbsS's'
g1
(g7
g3
NtRp515
(F0.56805947193027428
(dp516
tbsS'r'
g1
(g7
g3
NtRp517
(F6.40861317610869e-05
(dp518
tbsS'u'
g1
(g7
g3
NtRp519
(F6.40861317610869e-05
(dp520
tbsS't'
g1
(g7
g3
NtRp521
(F6.40861317610869e-05
(dp522
tbsS'w'
g1
(g7
g3
NtRp523
(F6.40861317610869e-05
(dp524
tbsS'v'
g1
(g7
g3
NtRp525
(F6.40861317610869e-05
(dp526
tbsS'y'
g1
(g7
g3
NtRp527
(F6.40861317610869e-05
(dp528
tbsS'x'
g1
(g7
g3
NtRp529
(F6.40861317610869e-05
(dp530
tbsS'z'
g1
(g7
g3
NtRp531
(F6.40861317610869e-05
(dp532
tbstbstbsS'r'
g1
(g7
g3
NtRp533
(g9
(dp534
S'|'
g1
(g7
g3
NtRp535
(g9
(dp536
S"'"
g1
(g7
g3
NtRp537
(F7.5301204819277115e-05
(dp538
tbsS'a'
g1
(g7
g3
NtRp539
(F7.5301204819277115e-05
(dp540
tbsS'c'
g1
(g7
g3
NtRp541
(F7.5301204819277115e-05
(dp542
tbsS'b'
g1
(g7
g3
NtRp543
(F7.5301204819277115e-05
(dp544
tbsS'e'
g1
(g7
g3
NtRp545
(F7.5301204819277115e-05
(dp546
tbsS'd'
g1
(g7
g3
NtRp547
(F7.5301204819277115e-05
(dp548
tbsS'g'
g1
(g7
g3
NtRp549
(F7.5301204819277115e-05
(dp550
tbsS'f'
g1
(g7
g3
NtRp551
(F7.5301204819277115e-05
(dp552
tbsS'i'
g1
(g7
g3
NtRp553
(F7.5301204819277115e-05
(dp554
tbsS'h'
g1
(g7
g3
NtRp555
(F7.5301204819277115e-05
(dp556
tbsS'k'
g1
(g7
g3
NtRp557
(F7.5301204819277115e-05
(dp558
tbsS'j'
g1
(g7
g3
NtRp559
(F7.5301204819277115e-05
(dp560
tbsS'm'
g1
(g7
g3
NtRp561
(F7.5301204819277115e-05
(dp562
tbsS'l'
g1
(g7
g3
NtRp563
(F7.5301204819277115e-05
(dp564
tbsS'o'
g1
(g7
g3
NtRp565
(F7.5301204819277115e-05
(dp566
tbsS'n'
g1
(g7
g3
NtRp567
(F7.5301204819277115e-05
(dp568
tbsS'q'
g1
(g7
g3
NtRp569
(F7.5301204819277115e-05
(dp570
tbsS'p'
g1
(g7
g3
NtRp571
(F7.5301204819277115e-05
(dp572
tbsS's'
g1
(g7
g3
NtRp573
(F7.5301204819277115e-05
(dp574
tbsS'r'
g1
(g7
g3
NtRp575
(F0.69292168674698795
(dp576
tbsS'u'
g1
(g7
g3
NtRp577
(F0.3051957831325301
(dp578
tbsS't'
g1
(g7
g3
NtRp579
(F7.5301204819277115e-05
(dp580
tbsS'w'
g1
(g7
g3
NtRp581
(F7.5301204819277115e-05
(dp582
tbsS'v'
g1
(g7
g3
NtRp583
(F7.5301204819277115e-05
(dp584
tbsS'y'
g1
(g7
g3
NtRp585
(F7.5301204819277115e-05
(dp586
tbsS'x'
g1
(g7
g3
NtRp587
(F7.5301204819277115e-05
(dp588
tbsS'z'
g1
(g7
g3
NtRp589
(F7.5301204819277115e-05
(dp590
tbstbstbsS't'
g1
(g7
g3
NtRp591
(g9
(dp592
S'|'
g1
(g7
g3
NtRp593
(g9
(dp594
S"'"
g1
(g7
g3
NtRp595
(F5.4150647100232849e-05
(dp596
tbsS'a'
g1
(g7
g3
NtRp597
(F5.4150647100232849e-05
(dp598
tbsS'c'
g1
(g7
g3
NtRp599
(F5.4150647100232849e-05
(dp600
tbsS'b'
g1
(g7
g3
NtRp601
(F5.4150647100232849e-05
(dp602
tbsS'e'
g1
(g7
g3
NtRp603
(F5.4150647100232849e-05
(dp604
tbsS'd'
g1
(g7
g3
NtRp605
(F5.4150647100232849e-05
(dp606
tbsS'g'
g1
(g7
g3
NtRp607
(F5.4150647100232849e-05
(dp608
tbsS'f'
g1
(g7
g3
NtRp609
(F5.4150647100232849e-05
(dp610
tbsS'i'
g1
(g7
g3
NtRp611
(F5.4150647100232849e-05
(dp612
tbsS'h'
g1
(g7
g3
NtRp613
(F5.4150647100232849e-05
(dp614
tbsS'k'
g1
(g7
g3
NtRp615
(F5.4150647100232849e-05
(dp616
tbsS'j'
g1
(g7
g3
NtRp617
(F5.4150647100232849e-05
(dp618
tbsS'm'
g1
(g7
g3
NtRp619
(F5.4150647100232849e-05
(dp620
tbsS'l'
g1
(g7
g3
NtRp621
(F5.4150647100232849e-05
(dp622
tbsS'o'
g1
(g7
g3
NtRp623
(F5.4150647100232849e-05
(dp624
tbsS'n'
g1
(g7
g3
NtRp625
(F5.4150647100232849e-05
(dp626
tbsS'q'
g1
(g7
g3
NtRp627
(F5.4150647100232849e-05
(dp628
tbsS'p'
g1
(g7
g3
NtRp629
(F5.4150647100232849e-05
(dp630
tbsS's'
g1
(g7
g3
NtRp631
(F5.4150647100232849e-05
(dp632
tbsS'r'
g1
(g7
g3
NtRp633
(F5.4150647100232849e-05
(dp634
tbsS'u'
g1
(g7
g3
NtRp635
(F5.4150647100232849e-05
(dp636
tbsS't'
g1
(g7
g3
NtRp637
(F0.79552715654952078
(dp638
tbsS'w'
g1
(g7
g3
NtRp639
(F5.4150647100232849e-05
(dp640
tbsS'v'
g1
(g7
g3
NtRp641
(F5.4150647100232849e-05
(dp642
tbsS'y'
g1
(g7
g3
NtRp643
(F0.2031190772729734
(dp644
tbsS'x'
g1
(g7
g3
NtRp645
(F5.4150647100232849e-05
(dp646
tbsS'z'
g1
(g7
g3
NtRp647
(F5.4150647100232849e-05
(dp648
tbstbstbsS'w'
g1
(g7
g3
NtRp649
(g9
(dp650
S'|'
g1
(g7
g3
NtRp651
(g9
(dp652
S"'"
g1
(g7
g3
NtRp653
(F5.6564285310255106e-05
(dp654
tbsS'a'
g1
(g7
g3
NtRp655
(F5.6564285310255106e-05
(dp656
tbsS'c'
g1
(g7
g3
NtRp657
(F5.6564285310255106e-05
(dp658
tbsS'b'
g1
(g7
g3
NtRp659
(F5.6564285310255106e-05
(dp660
tbsS'e'
g1
(g7
g3
NtRp661
(F5.6564285310255106e-05
(dp662
tbsS'd'
g1
(g7
g3
NtRp663
(F5.6564285310255106e-05
(dp664
tbsS'g'
g1
(g7
g3
NtRp665
(F5.6564285310255106e-05
(dp666
tbsS'f'
g1
(g7
g3
NtRp667
(F5.6564285310255106e-05
(dp668
tbsS'i'
g1
(g7
g3
NtRp669
(F5.6564285310255106e-05
(dp670
tbsS'h'
g1
(g7
g3
NtRp671
(F5.6564285310255106e-05
(dp672
tbsS'k'
g1
(g7
g3
NtRp673
(F5.6564285310255106e-05
(dp674
tbsS'j'
g1
(g7
g3
NtRp675
(F5.6564285310255106e-05
(dp676
tbsS'm'
g1
(g7
g3
NtRp677
(F5.6564285310255106e-05
(dp678
tbsS'l'
g1
(g7
g3
NtRp679
(F5.6564285310255106e-05
(dp680
tbsS'o'
g1
(g7
g3
NtRp681
(F0.72142089484699357
(dp682
tbsS'n'
g1
(g7
g3
NtRp683
(F5.6564285310255106e-05
(dp684
tbsS'q'
g1
(g7
g3
NtRp685
(F5.6564285310255106e-05
(dp686
tbsS'p'
g1
(g7
g3
NtRp687
(F5.6564285310255106e-05
(dp688
tbsS's'
g1
(g7
g3
NtRp689
(F5.6564285310255106e-05
(dp690
tbsS'r'
g1
(g7
g3
NtRp691
(F5.6564285310255106e-05
(dp692
tbsS'u'
g1
(g7
g3
NtRp693
(F5.6564285310255106e-05
(dp694
tbsS't'
g1
(g7
g3
NtRp695
(F5.6564285310255106e-05
(dp696
tbsS'w'
g1
(g7
g3
NtRp697
(F0.27716499802025002
(dp698
tbsS'v'
g1
(g7
g3
NtRp699
(F5.6564285310255106e-05
(dp700
tbsS'y'
g1
(g7
g3
NtRp701
(F5.6564285310255106e-05
(dp702
tbsS'x'
g1
(g7
g3
NtRp703
(F5.6564285310255106e-05
(dp704
tbsS'z'
g1
(g7
g3
NtRp705
(F5.6564285310255106e-05
(dp706
tbstbstbsS'v'
g1
(g7
g3
NtRp707
(g9
(dp708
S'|'
g1
(g7
g3
NtRp709
(g9
(dp710
S"'"
g1
(g7
g3
NtRp711
(F6.996431819771916e-05
(dp712
tbsS'a'
g1
(g7
g3
NtRp713
(F6.996431819771916e-05
(dp714
tbsS'c'
g1
(g7
g3
NtRp715
(F6.996431819771916e-05
(dp716
tbsS'b'
g1
(g7
g3
NtRp717
(F6.996431819771916e-05
(dp718
tbsS'e'
g1
(g7
g3
NtRp719
(F6.996431819771916e-05
(dp720
tbsS'd'
g1
(g7
g3
NtRp721
(F6.996431819771916e-05
(dp722
tbsS'g'
g1
(g7
g3
NtRp723
(F6.996431819771916e-05
(dp724
tbsS'f'
g1
(g7
g3
NtRp725
(F6.996431819771916e-05
(dp726
tbsS'i'
g1
(g7
g3
NtRp727
(F6.996431819771916e-05
(dp728
tbsS'h'
g1
(g7
g3
NtRp729
(F6.996431819771916e-05
(dp730
tbsS'k'
g1
(g7
g3
NtRp731
(F6.996431819771916e-05
(dp732
tbsS'j'
g1
(g7
g3
NtRp733
(F6.996431819771916e-05
(dp734
tbsS'm'
g1
(g7
g3
NtRp735
(F0.24466522073742392
(dp736
tbsS'l'
g1
(g7
g3
NtRp737
(F6.996431819771916e-05
(dp738
tbsS'o'
g1
(g7
g3
NtRp739
(F6.996431819771916e-05
(dp740
tbsS'n'
g1
(g7
g3
NtRp741
(F0.67340656265304699
(dp742
tbsS'q'
g1
(g7
g3
NtRp743
(F6.996431819771916e-05
(dp744
tbsS'p'
g1
(g7
g3
NtRp745
(F6.996431819771916e-05
(dp746
tbsS's'
g1
(g7
g3
NtRp747
(F6.996431819771916e-05
(dp748
tbsS'r'
g1
(g7
g3
NtRp749
(F6.996431819771916e-05
(dp750
tbsS'u'
g1
(g7
g3
NtRp751
(F6.996431819771916e-05
(dp752
tbsS't'
g1
(g7
g3
NtRp753
(F6.996431819771916e-05
(dp754
tbsS'w'
g1
(g7
g3
NtRp755
(F6.996431819771916e-05
(dp756
tbsS'v'
g1
(g7
g3
NtRp757
(F0.080249072972783886
(dp758
tbsS'y'
g1
(g7
g3
NtRp759
(F6.996431819771916e-05
(dp760
tbsS'x'
g1
(g7
g3
NtRp761
(F6.996431819771916e-05
(dp762
tbsS'z'
g1
(g7
g3
NtRp763
(F6.996431819771916e-05
(dp764
tbstbstbsS'x'
g1
(g7
g3
NtRp765
(g9
(dp766
S'|'
g1
(g7
g3
NtRp767
(g9
(dp768
S"'"
g1
(g7
g3
NtRp769
(F0.0060975609756097563
(dp770
tbsS'a'
g1
(g7
g3
NtRp771
(F0.0060975609756097563
(dp772
tbsS'c'
g1
(g7
g3
NtRp773
(F0.0060975609756097563
(dp774
tbsS'b'
g1
(g7
g3
NtRp775
(F0.0060975609756097563
(dp776
tbsS'e'
g1
(g7
g3
NtRp777
(F0.0060975609756097563
(dp778
tbsS'd'
g1
(g7
g3
NtRp779
(F0.0060975609756097563
(dp780
tbsS'g'
g1
(g7
g3
NtRp781
(F0.0060975609756097563
(dp782
tbsS'f'
g1
(g7
g3
NtRp783
(F0.0060975609756097563
(dp784
tbsS'i'
g1
(g7
g3
NtRp785
(F0.0060975609756097563
(dp786
tbsS'h'
g1
(g7
g3
NtRp787
(F0.0060975609756097563
(dp788
tbsS'k'
g1
(g7
g3
NtRp789
(F0.0060975609756097563
(dp790
tbsS'j'
g1
(g7
g3
NtRp791
(F0.0060975609756097563
(dp792
tbsS'm'
g1
(g7
g3
NtRp793
(F0.0060975609756097563
(dp794
tbsS'l'
g1
(g7
g3
NtRp795
(F0.0060975609756097563
(dp796
tbsS'o'
g1
(g7
g3
NtRp797
(F0.0060975609756097563
(dp798
tbsS'n'
g1
(g7
g3
NtRp799
(F0.0060975609756097563
(dp800
tbsS'q'
g1
(g7
g3
NtRp801
(F0.0060975609756097563
(dp802
tbsS'p'
g1
(g7
g3
NtRp803
(F0.0060975609756097563
(dp804
tbsS's'
g1
(g7
g3
NtRp805
(F0.0060975609756097563
(dp806
tbsS'r'
g1
(g7
g3
NtRp807
(F0.0060975609756097563
(dp808
tbsS'u'
g1
(g7
g3
NtRp809
(F0.0060975609756097563
(dp810
tbsS't'
g1
(g7
g3
NtRp811
(F0.0060975609756097563
(dp812
tbsS'w'
g1
(g7
g3
NtRp813
(F0.0060975609756097563
(dp814
tbsS'v'
g1
(g7
g3
NtRp815
(F0.0060975609756097563
(dp816
tbsS'y'
g1
(g7
g3
NtRp817
(F0.0060975609756097563
(dp818
tbsS'x'
g1
(g7
g3
NtRp819
(F0.84146341463414631
(dp820
tbsS'z'
g1
(g7
g3
NtRp821
(F0.0060975609756097563
(dp822
tbstbstbsS'z'
g1
(g7
g3
NtRp823
(g9
(dp824
S'|'
g1
(g7
g3
NtRp825
(g9
(dp826
S"'"
g1
(g7
g3
NtRp827
(F0.0034843205574912892
(dp828
tbsS'a'
g1
(g7
g3
NtRp829
(F0.0034843205574912892
(dp830
tbsS'c'
g1
(g7
g3
NtRp831
(F0.0034843205574912892
(dp832
tbsS'b'
g1
(g7
g3
NtRp833
(F0.0034843205574912892
(dp834
tbsS'e'
g1
(g7
g3
NtRp835
(F0.0034843205574912892
(dp836
tbsS'd'
g1
(g7
g3
NtRp837
(F0.0034843205574912892
(dp838
tbsS'g'
g1
(g7
g3
NtRp839
(F0.0034843205574912892
(dp840
tbsS'f'
g1
(g7
g3
NtRp841
(F0.0034843205574912892
(dp842
tbsS'i'
g1
(g7
g3
NtRp843
(F0.0034843205574912892
(dp844
tbsS'h'
g1
(g7
g3
NtRp845
(F0.0034843205574912892
(dp846
tbsS'k'
g1
(g7
g3
NtRp847
(F0.0034843205574912892
(dp848
tbsS'j'
g1
(g7
g3
NtRp849
(F0.0034843205574912892
(dp850
tbsS'm'
g1
(g7
g3
NtRp851
(F0.0034843205574912892
(dp852
tbsS'l'
g1
(g7
g3
NtRp853
(F0.0034843205574912892
(dp854
tbsS'o'
g1
(g7
g3
NtRp855
(F0.0034843205574912892
(dp856
tbsS'n'
g1
(g7
g3
NtRp857
(F0.0034843205574912892
(dp858
tbsS'q'
g1
(g7
g3
NtRp859
(F0.0034843205574912892
(dp860
tbsS'p'
g1
(g7
g3
NtRp861
(F0.0034843205574912892
(dp862
tbsS's'
g1
(g7
g3
NtRp863
(F0.0034843205574912892
(dp864
tbsS'r'
g1
(g7
g3
NtRp865
(F0.0034843205574912892
(dp866
tbsS'u'
g1
(g7
g3
NtRp867
(F0.0034843205574912892
(dp868
tbsS't'
g1
(g7
g3
NtRp869
(F0.0034843205574912892
(dp870
tbsS'w'
g1
(g7
g3
NtRp871
(F0.0034843205574912892
(dp872
tbsS'v'
g1
(g7
g3
NtRp873
(F0.0034843205574912892
(dp874
tbsS'y'
g1
(g7
g3
NtRp875
(F0.0034843205574912892
(dp876
tbsS'x'
g1
(g7
g3
NtRp877
(F0.0034843205574912892
(dp878
tbsS'z'
g1
(g7
g3
NtRp879
(F0.90940766550522645
(dp880
tbstbstbstbsb.