ccopy_reg
_reconstructor
p1
(cpytrie
StringTrie
p2
c__builtin__
object
p3
NtRp4
(dp5
S'_root'
p6
g1
(cpytrie
Node
p7
g3
NtRp8
(cpytrie
NULL
p9
(dp10
S' '
g1
(g7
g3
NtRp11
(g9
(dp12
S'|'
g1
(g7
g3
NtRp13
(g9
(dp14
S' '
g1
(g7
g3
NtRp15
(F2.5474461851993377e-05
(dp16
tbsS"'"
g1
(g7
g3
NtRp17
(F2.5474461851993377e-05
(dp18
tbsS'a'
g1
(g7
g3
NtRp19
(F0.12031588332696472
(dp20
tbsS'c'
g1
(g7
g3
NtRp21
(F0.038058846006878103
(dp22
tbsS'b'
g1
(g7
g3
NtRp23
(F0.047102279964335754
(dp24
tbsS'e'
g1
(g7
g3
NtRp25
(F0.014444019870080245
(dp26
tbsS'd'
g1
(g7
g3
NtRp27
(F0.031180741306839892
(dp28
tbsS'g'
g1
(g7
g3
NtRp29
(F0.028302127117564642
(dp30
tbsS'f'
g1
(g7
g3
NtRp31
(F0.035918991211310661
(dp32
tbsS'i'
g1
(g7
g3
NtRp33
(F0.055177684371417651
(dp34
tbsS'h'
g1
(g7
g3
NtRp35
(F0.06643739650999872
(dp36
tbsS'k'
g1
(g7
g3
NtRp37
(F0.0084575213348618006
(dp38
tbsS'j'
g1
(g7
g3
NtRp39
(F0.0035664246592790726
(dp40
tbsS'm'
g1
(g7
g3
NtRp41
(F0.034874538275378932
(dp42
tbsS'l'
g1
(g7
g3
NtRp43
(F0.028454973888676603
(dp44
tbsS'o'
g1
(g7
g3
NtRp45
(F0.049904470768055022
(dp46
tbsS'n'
g1
(g7
g3
NtRp47
(F0.019870080244554833
(dp48
tbsS'q'
g1
(g7
g3
NtRp49
(F0.0025983951089033246
(dp50
tbsS'p'
g1
(g7
g3
NtRp51
(F0.017857597758247357
(dp52
tbsS's'
g1
(g7
g3
NtRp53
(F0.082562730862310529
(dp54
tbsS'r'
g1
(g7
g3
NtRp55
(F0.01742453190676347
(dp56
tbsS'u'
g1
(g7
g3
NtRp57
(F0.011310661062285059
(dp58
tbsS't'
g1
(g7
g3
NtRp59
(F0.17918736466692142
(dp60
tbsS'w'
g1
(g7
g3
NtRp61
(F0.086205578907145586
(dp62
tbsS'v'
g1
(g7
g3
NtRp63
(F0.0034900012737230928
(dp64
tbsS'y'
g1
(g7
g3
NtRp65
(F0.01704241497898357
(dp66
tbsS'x'
g1
(g7
g3
NtRp67
(F2.5474461851993377e-05
(dp68
tbsS'z'
g1
(g7
g3
NtRp69
(F0.00017832123296395363
(dp70
tbstbstbstbsb.