ccopy_reg
_reconstructor
p1
(cpytrie
StringTrie
p2
c__builtin__
object
p3
NtRp4
(dp5
S'_root'
p6
g1
(cpytrie
Node
p7
g3
NtRp8
(cpytrie
NULL
p9
(dp10
S"'"
g1
(g7
g3
NtRp11
(g9
(dp12
S'|'
g1
(g7
g3
NtRp13
(g9
(dp14
S'c'
g1
(g7
g3
NtRp15
(F0.008658008658008658
(dp16
tbsS'd'
g1
(g7
g3
NtRp17
(F0.008658008658008658
(dp18
tbsS'm'
g1
(g7
g3
NtRp19
(F0.12554112554112554
(dp20
tbsS'l'
g1
(g7
g3
NtRp21
(F0.064935064935064929
(dp22
tbsS's'
g1
(g7
g3
NtRp23
(F0.37662337662337664
(dp24
tbsS'r'
g1
(g7
g3
NtRp25
(F0.021645021645021644
(dp26
tbsS't'
g1
(g7
g3
NtRp27
(F0.36363636363636365
(dp28
tbsS'v'
g1
(g7
g3
NtRp29
(F0.030303030303030304
(dp30
tbstbstbsS'a'
g1
(g7
g3
NtRp31
(g9
(dp32
S'|'
g1
(g7
g3
NtRp33
(g9
(dp34
S'a'
g1
(g7
g3
NtRp35
(F0.00016850619260257814
(dp36
tbsS'c'
g1
(g7
g3
NtRp37
(F0.02552868817929059
(dp38
tbsS'b'
g1
(g7
g3
NtRp39
(F0.0081725503412250402
(dp40
tbsS'd'
g1
(g7
g3
NtRp41
(F0.063442581514870672
(dp42
tbsS'g'
g1
(g7
g3
NtRp43
(F0.017019125452860391
(dp44
tbsS'f'
g1
(g7
g3
NtRp45
(F0.011879686578481759
(dp46
tbsS'i'
g1
(g7
g3
NtRp47
(F0.062684303648159065
(dp48
tbsS'h'
g1
(g7
g3
NtRp49
(F0.0010110371556154689
(dp50
tbsS'k'
g1
(g7
g3
NtRp51
(F0.012637964445193361
(dp52
tbsS'j'
g1
(g7
g3
NtRp53
(F0.00016850619260257814
(dp54
tbsS'm'
g1
(g7
g3
NtRp55
(F0.025191675794085433
(dp56
tbsS'l'
g1
(g7
g3
NtRp57
(F0.07616479905636532
(dp58
tbsS'n'
g1
(g7
g3
NtRp59
(F0.25090572078523887
(dp60
tbsS'p'
g1
(g7
g3
NtRp61
(F0.012132445867385627
(dp62
tbsS's'
g1
(g7
g3
NtRp63
(F0.12250400202207432
(dp64
tbsS'r'
g1
(g7
g3
NtRp65
(F0.11719605695509309
(dp66
tbsS'u'
g1
(g7
g3
NtRp67
(F0.011626927289577892
(dp68
tbsS't'
g1
(g7
g3
NtRp69
(F0.10523211728031005
(dp70
tbsS'w'
g1
(g7
g3
NtRp71
(F0.017019125452860391
(dp72
tbsS'v'
g1
(g7
g3
NtRp73
(F0.027719268683124104
(dp74
tbsS'y'
g1
(g7
g3
NtRp75
(F0.02822478726093184
(dp76
tbsS'x'
g1
(g7
g3
NtRp77
(F0.0023590866964360939
(dp78
tbsS'z'
g1
(g7
g3
NtRp79
(F0.0010110371556154689
(dp80
tbstbstbsS'c'
g1
(g7
g3
NtRp81
(g9
(dp82
S'|'
g1
(g7
g3
NtRp83
(g9
(dp84
S'a'
g1
(g7
g3
NtRp85
(F0.21720243266724587
(dp86
tbsS'c'
g1
(g7
g3
NtRp87
(F0.0017376194613379669
(dp88
tbsS'e'
g1
(g7
g3
NtRp89
(F0.1103388357949609
(dp90
tbsS'i'
g1
(g7
g3
NtRp91
(F0.035041992470315669
(dp92
tbsS'h'
g1
(g7
g3
NtRp93
(F0.1673906747755575
(dp94
tbsS'k'
g1
(g7
g3
NtRp95
(F0.1071532001158413
(dp96
tbsS'l'
g1
(g7
g3
NtRp97
(F0.047494931943237763
(dp98
tbsS'o'
g1
(g7
g3
NtRp99
(F0.16420503909643788
(dp100
tbsS'r'
g1
(g7
g3
NtRp101
(F0.10947002606429192
(dp102
tbsS'u'
g1
(g7
g3
NtRp103
(F0.015928178395598031
(dp104
tbsS't'
g1
(g7
g3
NtRp105
(F0.018245004344048653
(dp106
tbsS'y'
g1
(g7
g3
NtRp107
(F0.0057920648711265567
(dp108
tbstbstbsS'b'
g1
(g7
g3
NtRp109
(g9
(dp110
S'|'
g1
(g7
g3
NtRp111
(g9
(dp112
S'a'
g1
(g7
g3
NtRp113
(F0.11529521152952116
(dp114
tbsS'b'
g1
(g7
g3
NtRp115
(F0.0041841004184100415
(dp116
tbsS'e'
g1
(g7
g3
NtRp117
(F0.33658763365876337
(dp118
tbsS'i'
g1
(g7
g3
NtRp119
(F0.051603905160390519
(dp120
tbsS'j'
g1
(g7
g3
NtRp121
(F0.00046490004649000463
(dp122
tbsS'l'
g1
(g7
g3
NtRp123
(F0.078568107856810787
(dp124
tbsS'o'
g1
(g7
g3
NtRp125
(F0.081357508135750808
(dp126
tbsS's'
g1
(g7
g3
NtRp127
(F0.00046490004649000463
(dp128
tbsS'r'
g1
(g7
g3
NtRp129
(F0.1101813110181311
(dp130
tbsS'u'
g1
(g7
g3
NtRp131
(F0.16550441655044165
(dp132
tbsS't'
g1
(g7
g3
NtRp133
(F0.00046490004649000463
(dp134
tbsS'y'
g1
(g7
g3
NtRp135
(F0.055323105532310554
(dp136
tbstbstbsS'e'
g1
(g7
g3
NtRp137
(g9
(dp138
S'|'
g1
(g7
g3
NtRp139
(g9
(dp140
S"'"
g1
(g7
g3
NtRp141
(F0.00074141197792239886
(dp142
tbsS'a'
g1
(g7
g3
NtRp143
(F0.091028915067138977
(dp144
tbsS'c'
g1
(g7
g3
NtRp145
(F0.032704506137243593
(dp146
tbsS'b'
g1
(g7
g3
NtRp147
(F0.00024713732597413297
(dp148
tbsS'e'
g1
(g7
g3
NtRp149
(F0.060631023972320619
(dp150
tbsS'd'
g1
(g7
g3
NtRp151
(F0.16171019029574099
(dp152
tbsS'g'
g1
(g7
g3
NtRp153
(F0.0065079495839855013
(dp154
tbsS'f'
g1
(g7
g3
NtRp155
(F0.01260400362468078
(dp156
tbsS'i'
g1
(g7
g3
NtRp157
(F0.01334541560260318
(dp158
tbsS'h'
g1
(g7
g3
NtRp159
(F0.002306615042425241
(dp160
tbsS'k'
g1
(g7
g3
NtRp161
(F0.0013180657385287091
(dp162
tbsS'j'
g1
(g7
g3
NtRp163
(F0.00016475821731608864
(dp164
tbsS'm'
g1
(g7
g3
NtRp165
(F0.037317736222094076
(dp166
tbsS'l'
g1
(g7
g3
NtRp167
(F0.050333635390065079
(dp168
tbsS'o'
g1
(g7
g3
NtRp169
(F0.0053546420627728804
(dp170
tbsS'n'
g1
(g7
g3
NtRp171
(F0.09415932119614466
(dp172
tbsS'q'
g1
(g7
g3
NtRp173
(F0.00024713732597413297
(dp174
tbsS'p'
g1
(g7
g3
NtRp175
(F0.018123403904769752
(dp176
tbsS's'
g1
(g7
g3
NtRp177
(F0.079083944311722554
(dp178
tbsS'r'
g1
(g7
g3
NtRp179
(F0.20858390312216821
(dp180
tbsS'u'
g1
(g7
g3
NtRp181
(F0.00024713732597413297
(dp182
tbsS't'
g1
(g7
g3
NtRp183
(F0.036411566026855587
(dp184
tbsS'w'
g1
(g7
g3
NtRp185
(F0.011450696103468161
(dp186
tbsS'v'
g1
(g7
g3
NtRp187
(F0.021995222011697832
(dp188
tbsS'y'
g1
(g7
g3
NtRp189
(F0.046214679957162864
(dp190
tbsS'x'
g1
(g7
g3
NtRp191
(F0.0070846033445918118
(dp192
tbsS'z'
g1
(g7
g3
NtRp193
(F8.2379108658044319e-05
(dp194
tbstbstbsS'd'
g1
(g7
g3
NtRp195
(g9
(dp196
S'|'
g1
(g7
g3
NtRp197
(g9
(dp198
S"'"
g1
(g7
g3
NtRp199
(F0.0011677695601401323
(dp200
tbsS'a'
g1
(g7
g3
NtRp201
(F0.059166991047100041
(dp202
tbsS'c'
g1
(g7
g3
NtRp203
(F0.0027247956403269754
(dp204
tbsS'b'
g1
(g7
g3
NtRp205
(F0.0089528999610743489
(dp206
tbsS'e'
g1
(g7
g3
NtRp207
(F0.23978201634877383
(dp208
tbsS'd'
g1
(g7
g3
NtRp209
(F0.0253016738030362
(dp210
tbsS'g'
g1
(g7
g3
NtRp211
(F0.0077851304009342159
(dp212
tbsS'f'
g1
(g7
g3
NtRp213
(F0.0046710782405605293
(dp214
tbsS'i'
g1
(g7
g3
NtRp215
(F0.10042818217205138
(dp216
tbsS'h'
g1
(g7
g3
NtRp217
(F0.0011677695601401323
(dp218
tbsS'k'
g1
(g7
g3
NtRp219
(F0.00038925652004671076
(dp220
tbsS'm'
g1
(g7
g3
NtRp221
(F0.073180225768781623
(dp222
tbsS'l'
g1
(g7
g3
NtRp223
(F0.04865706500583885
(dp224
tbsS'o'
g1
(g7
g3
NtRp225
(F0.28610354223433243
(dp226
tbsS'n'
g1
(g7
g3
NtRp227
(F0.0073958738808875052
(dp228
tbsS's'
g1
(g7
g3
NtRp229
(F0.065005838847800701
(dp230
tbsS'r'
g1
(g7
g3
NtRp231
(F0.034643830284157261
(dp232
tbsS'u'
g1
(g7
g3
NtRp233
(F0.0066173608407940829
(dp234
tbsS't'
g1
(g7
g3
NtRp235
(F0.00038925652004671076
(dp236
tbsS'w'
g1
(g7
g3
NtRp237
(F0.001557026080186843
(dp238
tbsS'v'
g1
(g7
g3
NtRp239
(F0.0027247956403269754
(dp240
tbsS'y'
g1
(g7
g3
NtRp241
(F0.022187621642662515
(dp242
tbstbstbsS'g'
g1
(g7
g3
NtRp243
(g9
(dp244
S'|'
g1
(g7
g3
NtRp245
(g9
(dp246
S'a'
g1
(g7
g3
NtRp247
(F0.10084033613445378
(dp248
tbsS'e'
g1
(g7
g3
NtRp249
(F0.17460317460317459
(dp250
tbsS'd'
g1
(g7
g3
NtRp251
(F0.00093370681605975728
(dp252
tbsS'g'
g1
(g7
g3
NtRp253
(F0.016339869281045753
(dp254
tbsS'f'
g1
(g7
g3
NtRp255
(F0.00046685340802987864
(dp256
tbsS'i'
g1
(g7
g3
NtRp257
(F0.087301587301587297
(dp258
tbsS'h'
g1
(g7
g3
NtRp259
(F0.19234360410831
(dp260
tbsS'l'
g1
(g7
g3
NtRp261
(F0.036881419234360412
(dp262
tbsS'o'
g1
(g7
g3
NtRp263
(F0.13211951447245565
(dp264
tbsS'n'
g1
(g7
g3
NtRp265
(F0.0018674136321195146
(dp266
tbsS's'
g1
(g7
g3
NtRp267
(F0.033146591970121382
(dp268
tbsS'r'
g1
(g7
g3
NtRp269
(F0.2030812324929972
(dp270
tbsS'u'
g1
(g7
g3
NtRp271
(F0.016339869281045753
(dp272
tbsS't'
g1
(g7
g3
NtRp273
(F0.0014005602240896359
(dp274
tbsS'y'
g1
(g7
g3
NtRp275
(F0.002334267040149393
(dp276
tbstbstbsS'f'
g1
(g7
g3
NtRp277
(g9
(dp278
S'|'
g1
(g7
g3
NtRp279
(g9
(dp280
S'a'
g1
(g7
g3
NtRp281
(F0.090068159688412849
(dp282
tbsS'e'
g1
(g7
g3
NtRp283
(F0.10418695228821812
(dp284
tbsS"'"
g1
(g7
g3
NtRp285
(F0.00048685491723466409
(dp286
tbsS'f'
g1
(g7
g3
NtRp287
(F0.041382667964946447
(dp288
tbsS'i'
g1
(g7
g3
NtRp289
(F0.10370009737098344
(dp290
tbsS'l'
g1
(g7
g3
NtRp291
(F0.055014605647517041
(dp292
tbsS'o'
g1
(g7
g3
NtRp293
(F0.31061343719571566
(dp294
tbsS's'
g1
(g7
g3
NtRp295
(F0.00048685491723466409
(dp296
tbsS'r'
g1
(g7
g3
NtRp297
(F0.13047711781888996
(dp298
tbsS'u'
g1
(g7
g3
NtRp299
(F0.087633885102239531
(dp300
tbsS't'
g1
(g7
g3
NtRp301
(F0.075462512171372925
(dp302
tbsS'w'
g1
(g7
g3
NtRp303
(F0.00048685491723466409
(dp304
tbstbstbsS'i'
g1
(g7
g3
NtRp305
(g9
(dp306
S'|'
g1
(g7
g3
NtRp307
(g9
(dp308
S'a'
g1
(g7
g3
NtRp309
(F0.0037695841677464954
(dp310
tbsS'c'
g1
(g7
g3
NtRp311
(F0.038284839203675342
(dp312
tbsS'b'
g1
(g7
g3
NtRp313
(F0.0055365767463776651
(dp314
tbsS'e'
g1
(g7
g3
NtRp315
(F0.045352809518200025
(dp316
tbsS'd'
g1
(g7
g3
NtRp317
(F0.075038284839203676
(dp318
tbsS'g'
g1
(g7
g3
NtRp319
(F0.032983861467781837
(dp320
tbsS'f'
g1
(g7
g3
NtRp321
(F0.027211685710920013
(dp322
tbsS'k'
g1
(g7
g3
NtRp323
(F0.0083637648721875367
(dp324
tbsS'm'
g1
(g7
g3
NtRp325
(F0.042525621392390155
(dp326
tbsS'l'
g1
(g7
g3
NtRp327
(F0.069266109082341848
(dp328
tbsS'o'
g1
(g7
g3
NtRp329
(F0.030627871362940276
(dp330
tbsS'n'
g1
(g7
g3
NtRp331
(F0.27353045117210506
(dp332
tbsS'p'
g1
(g7
g3
NtRp333
(F0.0041229826834727297
(dp334
tbsS's'
g1
(g7
g3
NtRp335
(F0.10637295323359641
(dp336
tbsS'r'
g1
(g7
g3
NtRp337
(F0.049357992696430673
(dp338
tbsS't'
g1
(g7
g3
NtRp339
(F0.15608434444575334
(dp340
tbsS'v'
g1
(g7
g3
NtRp341
(F0.018258923312522088
(dp342
tbsS"'"
g1
(g7
g3
NtRp343
(F0.0060077747673459771
(dp344
tbsS'x'
g1
(g7
g3
NtRp345
(F0.00023559901048415596
(dp346
tbsS'z'
g1
(g7
g3
NtRp347
(F0.0070679703145246787
(dp348
tbstbstbsS'h'
g1
(g7
g3
NtRp349
(g9
(dp350
S'|'
g1
(g7
g3
NtRp351
(g9
(dp352
S'a'
g1
(g7
g3
NtRp353
(F0.13577274915743862
(dp354
tbsS'e'
g1
(g7
g3
NtRp355
(F0.6077997111218103
(dp356
tbsS"'"
g1
(g7
g3
NtRp357
(F0.00048146364949446316
(dp358
tbsS'f'
g1
(g7
g3
NtRp359
(F0.00019258545979778527
(dp360
tbsS'i'
g1
(g7
g3
NtRp361
(F0.10284063553201733
(dp362
tbsS'k'
g1
(g7
g3
NtRp363
(F0.0031776600866634569
(dp364
tbsS'l'
g1
(g7
g3
NtRp365
(F0.00048146364949446316
(dp366
tbsS'o'
g1
(g7
g3
NtRp367
(F0.062686567164179099
(dp368
tbsS's'
g1
(g7
g3
NtRp369
(F0.0016369764082811748
(dp370
tbsS'r'
g1
(g7
g3
NtRp371
(F0.012903225806451613
(dp372
tbsS'u'
g1
(g7
g3
NtRp373
(F0.0062590274434280212
(dp374
tbsS't'
g1
(g7
g3
NtRp375
(F0.026095329802599904
(dp376
tbsS'w'
g1
(g7
g3
NtRp377
(F0.00019258545979778527
(dp378
tbsS'y'
g1
(g7
g3
NtRp379
(F0.039480019258545981
(dp380
tbstbstbsS'k'
g1
(g7
g3
NtRp381
(g9
(dp382
S'|'
g1
(g7
g3
NtRp383
(g9
(dp384
S'a'
g1
(g7
g3
NtRp385
(F0.048895899053627762
(dp386
tbsS'e'
g1
(g7
g3
NtRp387
(F0.57176656151419558
(dp388
tbsS'f'
g1
(g7
g3
NtRp389
(F0.0078864353312302835
(dp390
tbsS'i'
g1
(g7
g3
NtRp391
(F0.20977917981072555
(dp392
tbsS'k'
g1
(g7
g3
NtRp393
(F0.0015772870662460567
(dp394
tbsS'm'
g1
(g7
g3
NtRp395
(F0.0055205047318611991
(dp396
tbsS'l'
g1
(g7
g3
NtRp397
(F0.020504731861198739
(dp398
tbsS'o'
g1
(g7
g3
NtRp399
(F0.00078864353312302837
(dp400
tbsS'n'
g1
(g7
g3
NtRp401
(F0.085962145110410101
(dp402
tbsS's'
g1
(g7
g3
NtRp403
(F0.029179810725552049
(dp404
tbsS'w'
g1
(g7
g3
NtRp405
(F0.0023659305993690852
(dp406
tbsS'y'
g1
(g7
g3
NtRp407
(F0.015772870662460567
(dp408
tbstbstbsS'j'
g1
(g7
g3
NtRp409
(g9
(dp410
S'|'
g1
(g7
g3
NtRp411
(g9
(dp412
S'a'
g1
(g7
g3
NtRp413
(F0.053691275167785234
(dp414
tbsS'e'
g1
(g7
g3
NtRp415
(F0.053691275167785234
(dp416
tbsS'u'
g1
(g7
g3
NtRp417
(F0.40268456375838924
(dp418
tbsS'o'
g1
(g7
g3
NtRp419
(F0.48993288590604028
(dp420
tbstbstbsS'm'
g1
(g7
g3
NtRp421
(g9
(dp422
S'|'
g1
(g7
g3
NtRp423
(g9
(dp424
S'a'
g1
(g7
g3
NtRp425
(F0.2564389697648376
(dp426
tbsS'b'
g1
(g7
g3
NtRp427
(F0.020903322135125045
(dp428
tbsS'e'
g1
(g7
g3
NtRp429
(F0.32624113475177308
(dp430
tbsS"'"
g1
(g7
g3
NtRp431
(F0.00037327360955580441
(dp432
tbsS'f'
g1
(g7
g3
NtRp433
(F0.0041060097051138483
(dp434
tbsS'i'
g1
(g7
g3
NtRp435
(F0.078014184397163122
(dp436
tbsS'h'
g1
(g7
g3
NtRp437
(F0.0011198208286674132
(dp438
tbsS'm'
g1
(g7
g3
NtRp439
(F0.010824934677118328
(dp440
tbsS'l'
g1
(g7
g3
NtRp441
(F0.0029861888764464353
(dp442
tbsS'o'
g1
(g7
g3
NtRp443
(F0.093691675998506904
(dp444
tbsS'n'
g1
(g7
g3
NtRp445
(F0.0014930944382232176
(dp446
tbsS'p'
g1
(g7
g3
NtRp447
(F0.021649869354236656
(dp448
tbsS's'
g1
(g7
g3
NtRp449
(F0.036207540126913025
(dp450
tbsS'r'
g1
(g7
g3
NtRp451
(F0.0044792833146696529
(dp452
tbsS'u'
g1
(g7
g3
NtRp453
(F0.060097051138484507
(dp454
tbsS'y'
g1
(g7
g3
NtRp455
(F0.081373646883165354
(dp456
tbstbstbsS'l'
g1
(g7
g3
NtRp457
(g9
(dp458
S'|'
g1
(g7
g3
NtRp459
(g9
(dp460
S"'"
g1
(g7
g3
NtRp461
(F0.00017962996227770793
(dp462
tbsS'a'
g1
(g7
g3
NtRp463
(F0.06592419615591881
(dp464
tbsS'c'
g1
(g7
g3
NtRp465
(F0.0025148194718879109
(dp466
tbsS'b'
g1
(g7
g3
NtRp467
(F0.00035925992455541585
(dp468
tbsS'e'
g1
(g7
g3
NtRp469
(F0.17819292257948627
(dp470
tbsS'd'
g1
(g7
g3
NtRp471
(F0.1110113166876235
(dp472
tbsS'g'
g1
(g7
g3
NtRp473
(F0.00053888988683312372
(dp474
tbsS'f'
g1
(g7
g3
NtRp475
(F0.016166696604993713
(dp476
tbsS'i'
g1
(g7
g3
NtRp477
(F0.13220765223639303
(dp478
tbsS'k'
g1
(g7
g3
NtRp479
(F0.020657445661936412
(dp480
tbsS'm'
g1
(g7
g3
NtRp481
(F0.0017962996227770792
(dp482
tbsS'l'
g1
(g7
g3
NtRp483
(F0.19831147835458954
(dp484
tbsS'o'
g1
(g7
g3
NtRp485
(F0.108855757140291
(dp486
tbsS'n'
g1
(g7
g3
NtRp487
(F0.00017962996227770793
(dp488
tbsS'p'
g1
(g7
g3
NtRp489
(F0.0093407580384408124
(dp490
tbsS's'
g1
(g7
g3
NtRp491
(F0.013292617208550387
(dp492
tbsS'r'
g1
(g7
g3
NtRp493
(F0.00053888988683312372
(dp494
tbsS'u'
g1
(g7
g3
NtRp495
(F0.0088018681516076874
(dp496
tbsS't'
g1
(g7
g3
NtRp497
(F0.011137057661217892
(dp498
tbsS'w'
g1
(g7
g3
NtRp499
(F0.0037722292078318665
(dp500
tbsS'v'
g1
(g7
g3
NtRp501
(F0.010418537812107059
(dp502
tbsS'y'
g1
(g7
g3
NtRp503
(F0.10580204778156997
(dp504
tbstbstbsS'o'
g1
(g7
g3
NtRp505
(g9
(dp506
S'|'
g1
(g7
g3
NtRp507
(g9
(dp508
S"'"
g1
(g7
g3
NtRp509
(F0.00046983649689907913
(dp510
tbsS'a'
g1
(g7
g3
NtRp511
(F0.0097725991355008465
(dp512
tbsS'c'
g1
(g7
g3
NtRp513
(F0.0046983649689907913
(dp514
tbsS'b'
g1
(g7
g3
NtRp515
(F0.0026310843826348432
(dp516
tbsS'e'
g1
(g7
g3
NtRp517
(F0.0054501033640293175
(dp518
tbsS'd'
g1
(g7
g3
NtRp519
(F0.036365344859988727
(dp520
tbsS'g'
g1
(g7
g3
NtRp521
(F0.0046043976696109757
(dp522
tbsS'f'
g1
(g7
g3
NtRp523
(F0.084006765645555342
(dp524
tbsS'i'
g1
(g7
g3
NtRp525
(F0.012403683518135689
(dp526
tbsS'h'
g1
(g7
g3
NtRp527
(F0.003664724675812817
(dp528
tbsS'k'
g1
(g7
g3
NtRp529
(F0.017289983085886113
(dp530
tbsS'm'
g1
(g7
g3
NtRp531
(F0.049426799473783124
(dp532
tbsS'l'
g1
(g7
g3
NtRp533
(F0.026968614922007143
(dp534
tbsS'o'
g1
(g7
g3
NtRp535
(F0.073106558917496706
(dp536
tbsS'n'
g1
(g7
g3
NtRp537
(F0.12131178349934223
(dp538
tbsS'q'
g1
(g7
g3
NtRp539
(F0.0006577710956587108
(dp540
tbsS'p'
g1
(g7
g3
NtRp541
(F0.017759819582785191
(dp542
tbsS's'
g1
(g7
g3
NtRp543
(F0.016256342792708139
(dp544
tbsS'r'
g1
(g7
g3
NtRp545
(F0.12760759255778989
(dp546
tbsS'u'
g1
(g7
g3
NtRp547
(F0.16820146588987034
(dp548
tbsS't'
g1
(g7
g3
NtRp549
(F0.093215560984777304
(dp550
tbsS'w'
g1
(g7
g3
NtRp551
(F0.089268934410825035
(dp552
tbsS'v'
g1
(g7
g3
NtRp553
(F0.016068408193948506
(dp554
tbsS'y'
g1
(g7
g3
NtRp555
(F0.0030069535801541063
(dp556
tbsS'x'
g1
(g7
g3
NtRp557
(F0.00056380379627889491
(dp558
tbsS'z'
g1
(g7
g3
NtRp559
(F0.015222702499530163
(dp560
tbstbstbsS'n'
g1
(g7
g3
NtRp561
(g9
(dp562
S'|'
g1
(g7
g3
NtRp563
(g9
(dp564
S"'"
g1
(g7
g3
NtRp565
(F0.014455044810638912
(dp566
tbsS'a'
g1
(g7
g3
NtRp567
(F0.0082393755420641802
(dp568
tbsS'c'
g1
(g7
g3
NtRp569
(F0.028765539173171435
(dp570
tbsS'b'
g1
(g7
g3
NtRp571
(F0.00043365134431916737
(dp572
tbsS'e'
g1
(g7
g3
NtRp573
(F0.11087019369760047
(dp574
tbsS'd'
g1
(g7
g3
NtRp575
(F0.33521248915871638
(dp576
tbsS'g'
g1
(g7
g3
NtRp577
(F0.15770453888407054
(dp578
tbsS'f'
g1
(g7
g3
NtRp579
(F0.0015900549291702805
(dp580
tbsS'i'
g1
(g7
g3
NtRp581
(F0.022549869904596703
(dp582
tbsS'h'
g1
(g7
g3
NtRp583
(F0.0018791558253830587
(dp584
tbsS'k'
g1
(g7
g3
NtRp585
(F0.028187337380745879
(dp586
tbsS'j'
g1
(g7
g3
NtRp587
(F0.00072275224053194561
(dp588
tbsS'l'
g1
(g7
g3
NtRp589
(F0.013009540329575022
(dp590
tbsS'o'
g1
(g7
g3
NtRp591
(F0.10118531367447239
(dp592
tbsS'n'
g1
(g7
g3
NtRp593
(F0.011708586296617519
(dp594
tbsS'q'
g1
(g7
g3
NtRp595
(F0.0020237062734894478
(dp596
tbsS's'
g1
(g7
g3
NtRp597
(F0.046256143394044519
(dp598
tbsS'r'
g1
(g7
g3
NtRp599
(F0.0018791558253830587
(dp600
tbsS'u'
g1
(g7
g3
NtRp601
(F0.0050592656837236197
(dp602
tbsS't'
g1
(g7
g3
NtRp603
(F0.083983810349812088
(dp604
tbsS'w'
g1
(g7
g3
NtRp605
(F0.00043365134431916737
(dp606
tbsS'v'
g1
(g7
g3
NtRp607
(F0.00072275224053194561
(dp608
tbsS'y'
g1
(g7
g3
NtRp609
(F0.020959814975426424
(dp610
tbsS'x'
g1
(g7
g3
NtRp611
(F0.0021682567215958368
(dp612
tbstbstbsS'q'
g1
(g7
g3
NtRp613
(g9
(dp614
S'|'
g1
(g7
g3
NtRp615
(g9
(dp616
S'u'
g1
(g7
g3
NtRp617
(F1
(dp618
tbstbstbsS'p'
g1
(g7
g3
NtRp619
(g9
(dp620
S'|'
g1
(g7
g3
NtRp621
(g9
(dp622
S'a'
g1
(g7
g3
NtRp623
(F0.10692588092345079
(dp624
tbsS'b'
g1
(g7
g3
NtRp625
(F0.0048602673147023082
(dp626
tbsS'e'
g1
(g7
g3
NtRp627
(F0.20109356014580801
(dp628
tbsS"'"
g1
(g7
g3
NtRp629
(F0.00060753341433778852
(dp630
tbsS'i'
g1
(g7
g3
NtRp631
(F0.060145808019441069
(dp632
tbsS'h'
g1
(g7
g3
NtRp633
(F0.0048602673147023082
(dp634
tbsS'l'
g1
(g7
g3
NtRp635
(F0.14580801944106925
(dp636
tbsS'o'
g1
(g7
g3
NtRp637
(F0.15552855407047386
(dp638
tbsS'p'
g1
(g7
g3
NtRp639
(F0.092952612393681647
(dp640
tbsS's'
g1
(g7
g3
NtRp641
(F0.02187120291616039
(dp642
tbsS'r'
g1
(g7
g3
NtRp643
(F0.11360874848116646
(dp644
tbsS'u'
g1
(g7
g3
NtRp645
(F0.040704738760631833
(dp646
tbsS't'
g1
(g7
g3
NtRp647
(F0.032199270959902791
(dp648
tbsS'w'
g1
(g7
g3
NtRp649
(F0.00060753341433778852
(dp650
tbsS'y'
g1
(g7
g3
NtRp651
(F0.018226002430133656
(dp652
tbstbstbsS's'
g1
(g7
g3
NtRp653
(g9
(dp654
S'|'
g1
(g7
g3
NtRp655
(g9
(dp656
S'a'
g1
(g7
g3
NtRp657
(F0.10782356144490833
(dp658
tbsS'c'
g1
(g7
g3
NtRp659
(F0.051552005808676714
(dp660
tbsS'b'
g1
(g7
g3
NtRp661
(F0.00036304229442730079
(dp662
tbsS'e'
g1
(g7
g3
NtRp663
(F0.14993646759847523
(dp664
tbsS'g'
g1
(g7
g3
NtRp665
(F0.00018152114721365039
(dp666
tbsS"'"
g1
(g7
g3
NtRp667
(F0.00018152114721365039
(dp668
tbsS'f'
g1
(g7
g3
NtRp669
(F0.00072608458885460158
(dp670
tbsS'i'
g1
(g7
g3
NtRp671
(F0.043383554184062444
(dp672
tbsS'h'
g1
(g7
g3
NtRp673
(F0.15610818660373935
(dp674
tbsS'k'
g1
(g7
g3
NtRp675
(F0.035578144853875476
(dp676
tbsS'm'
g1
(g7
g3
NtRp677
(F0.010165184243964422
(dp678
tbsS'l'
g1
(g7
g3
NtRp679
(F0.017244508985296787
(dp680
tbsS'o'
g1
(g7
g3
NtRp681
(F0.10510074423670357
(dp682
tbsS'n'
g1
(g7
g3
NtRp683
(F0.0045380286803412594
(dp684
tbsS'q'
g1
(g7
g3
NtRp685
(F0.0010891268832819024
(dp686
tbsS'p'
g1
(g7
g3
NtRp687
(F0.020693410782356144
(dp688
tbsS's'
g1
(g7
g3
NtRp689
(F0.041931385006353239
(dp690
tbsS'u'
g1
(g7
g3
NtRp691
(F0.031947721909602468
(dp692
tbsS't'
g1
(g7
g3
NtRp693
(F0.19676892357959702
(dp694
tbsS'w'
g1
(g7
g3
NtRp695
(F0.022145579960065349
(dp696
tbsS'y'
g1
(g7
g3
NtRp697
(F0.0025412960609911056
(dp698
tbstbstbsS'r'
g1
(g7
g3
NtRp699
(g9
(dp700
S'|'
g1
(g7
g3
NtRp701
(g9
(dp702
S"'"
g1
(g7
g3
NtRp703
(F0.0014126289023873428
(dp704
tbsS'a'
g1
(g7
g3
NtRp705
(F0.078965955643452462
(dp706
tbsS'c'
g1
(g7
g3
NtRp707
(F0.0070631445119367139
(dp708
tbsS'b'
g1
(g7
g3
NtRp709
(F0.0011301031219098743
(dp710
tbsS'e'
g1
(g7
g3
NtRp711
(F0.33168526628054812
(dp712
tbsS'd'
g1
(g7
g3
NtRp713
(F0.036587088571832183
(dp714
tbsS'g'
g1
(g7
g3
NtRp715
(F0.0032490464754908886
(dp716
tbsS'f'
g1
(g7
g3
NtRp717
(F0.0062155671705043086
(dp718
tbsS'i'
g1
(g7
g3
NtRp719
(F0.071479022460799554
(dp720
tbsS'h'
g1
(g7
g3
NtRp721
(F0.0021189433535810142
(dp722
tbsS'k'
g1
(g7
g3
NtRp723
(F0.014691340584828365
(dp724
tbsS'm'
g1
(g7
g3
NtRp725
(F0.01709280971888685
(dp726
tbsS'l'
g1
(g7
g3
NtRp727
(F0.022460799547958751
(dp728
tbsS'o'
g1
(g7
g3
NtRp729
(F0.18900974713942648
(dp730
tbsS'n'
g1
(g7
g3
NtRp731
(F0.026133634694165842
(dp732
tbsS'p'
g1
(g7
g3
NtRp733
(F0.0083345105240853236
(dp734
tbsS's'
g1
(g7
g3
NtRp735
(F0.043508970193530158
(dp736
tbsS'r'
g1
(g7
g3
NtRp737
(F0.024014691340584829
(dp738
tbsS'u'
g1
(g7
g3
NtRp739
(F0.021048170645571407
(dp740
tbsS't'
g1
(g7
g3
NtRp741
(F0.04025992371803927
(dp742
tbsS'w'
g1
(g7
g3
NtRp743
(F0.0021189433535810142
(dp744
tbsS'v'
g1
(g7
g3
NtRp745
(F0.0015538917926260771
(dp746
tbsS'y'
g1
(g7
g3
NtRp747
(F0.049865800254273202
(dp748
tbstbstbsS'u'
g1
(g7
g3
NtRp749
(g9
(dp750
S'|'
g1
(g7
g3
NtRp751
(g9
(dp752
S'a'
g1
(g7
g3
NtRp753
(F0.010942760942760943
(dp754
tbsS'c'
g1
(g7
g3
NtRp755
(F0.031705948372615041
(dp756
tbsS'b'
g1
(g7
g3
NtRp757
(F0.0058922558922558923
(dp758
tbsS'e'
g1
(g7
g3
NtRp759
(F0.030864197530864196
(dp760
tbsS'd'
g1
(g7
g3
NtRp761
(F0.013187429854096521
(dp762
tbsS'g'
g1
(g7
g3
NtRp763
(F0.068181818181818177
(dp764
tbsS'f'
g1
(g7
g3
NtRp765
(F0.0095398428731762065
(dp766
tbsS'i'
g1
(g7
g3
NtRp767
(F0.027777777777777776
(dp768
tbsS'm'
g1
(g7
g3
NtRp769
(F0.013468013468013467
(dp770
tbsS'l'
g1
(g7
g3
NtRp771
(F0.14534231200897868
(dp772
tbsS'n'
g1
(g7
g3
NtRp773
(F0.14702581369248036
(dp774
tbsS'p'
g1
(g7
g3
NtRp775
(F0.065937149270482609
(dp776
tbsS's'
g1
(g7
g3
NtRp777
(F0.11503928170594838
(dp778
tbsS'r'
g1
(g7
g3
NtRp779
(F0.13215488215488216
(dp780
tbsS't'
g1
(g7
g3
NtRp781
(F0.17929292929292928
(dp782
tbsS"'"
g1
(g7
g3
NtRp783
(F0.0016835016835016834
(dp784
tbsS'z'
g1
(g7
g3
NtRp785
(F0.0019640852974186309
(dp786
tbstbstbsS't'
g1
(g7
g3
NtRp787
(g9
(dp788
S'|'
g1
(g7
g3
NtRp789
(g9
(dp790
S'a'
g1
(g7
g3
NtRp791
(F0.020559889857732903
(dp792
tbsS'c'
g1
(g7
g3
NtRp793
(F0.016521340064249657
(dp794
tbsS'e'
g1
(g7
g3
NtRp795
(F0.071317117944011008
(dp796
tbsS"'"
g1
(g7
g3
NtRp797
(F0.0012849931161083065
(dp798
tbsS'f'
g1
(g7
g3
NtRp799
(F0.0011932078935291419
(dp800
tbsS'i'
g1
(g7
g3
NtRp801
(F0.049931161083065626
(dp802
tbsS'h'
g1
(g7
g3
NtRp803
(F0.55291418081688848
(dp804
tbsS'm'
g1
(g7
g3
NtRp805
(F9.1785222579164751e-05
(dp806
tbsS'l'
g1
(g7
g3
NtRp807
(F0.024323083983478658
(dp808
tbsS'o'
g1
(g7
g3
NtRp809
(F0.15273061037173016
(dp810
tbsS'n'
g1
(g7
g3
NtRp811
(F0.00027535566773749428
(dp812
tbsS's'
g1
(g7
g3
NtRp813
(F0.013217072051399725
(dp814
tbsS'r'
g1
(g7
g3
NtRp815
(F0.03708122992198256
(dp816
tbsS'u'
g1
(g7
g3
NtRp817
(F0.013125286828820561
(dp818
tbsS't'
g1
(g7
g3
NtRp819
(F0.026984855438274436
(dp820
tbsS'w'
g1
(g7
g3
NtRp821
(F0.0039467645709040846
(dp822
tbsS'y'
g1
(g7
g3
NtRp823
(F0.014502065167508031
(dp824
tbstbstbsS'w'
g1
(g7
g3
NtRp825
(g9
(dp826
S'|'
g1
(g7
g3
NtRp827
(g9
(dp828
S'a'
g1
(g7
g3
NtRp829
(F0.23168077388149941
(dp830
tbsS'e'
g1
(g7
g3
NtRp831
(F0.18718258766626361
(dp832
tbsS'd'
g1
(g7
g3
NtRp833
(F0.0012091898428053204
(dp834
tbsS"'"
g1
(g7
g3
NtRp835
(F0.0016928657799274486
(dp836
tbsS'f'
g1
(g7
g3
NtRp837
(F0.002176541717049577
(dp838
tbsS'i'
g1
(g7
g3
NtRp839
(F0.22708585247883917
(dp840
tbsS'h'
g1
(g7
g3
NtRp841
(F0.16541717049576785
(dp842
tbsS'k'
g1
(g7
g3
NtRp843
(F0.00048367593712212819
(dp844
tbsS'l'
g1
(g7
g3
NtRp845
(F0.0058041112454655383
(dp846
tbsS'o'
g1
(g7
g3
NtRp847
(F0.12672309552599759
(dp848
tbsS'n'
g1
(g7
g3
NtRp849
(F0.037726723095526001
(dp850
tbsS's'
g1
(g7
g3
NtRp851
(F0.0094316807738815001
(dp852
tbsS'r'
g1
(g7
g3
NtRp853
(F0.0029020556227327692
(dp854
tbsS'u'
g1
(g7
g3
NtRp855
(F0.00048367593712212819
(dp856
tbstbstbsS'v'
g1
(g7
g3
NtRp857
(g9
(dp858
S'|'
g1
(g7
g3
NtRp859
(g9
(dp860
S'i'
g1
(g7
g3
NtRp861
(F0.054101221640488653
(dp862
tbsS'a'
g1
(g7
g3
NtRp863
(F0.0034904013961605585
(dp864
tbsS'e'
g1
(g7
g3
NtRp865
(F0.90139616055846428
(dp866
tbsS'y'
g1
(g7
g3
NtRp867
(F0.0078534031413612562
(dp868
tbsS'o'
g1
(g7
g3
NtRp869
(F0.033158813263525308
(dp870
tbstbstbsS'y'
g1
(g7
g3
NtRp871
(g9
(dp872
S'|'
g1
(g7
g3
NtRp873
(g9
(dp874
S'a'
g1
(g7
g3
NtRp875
(F0.009643201542912247
(dp876
tbsS'c'
g1
(g7
g3
NtRp877
(F0.01446480231436837
(dp878
tbsS'b'
g1
(g7
g3
NtRp879
(F0.0038572806171648989
(dp880
tbsS'e'
g1
(g7
g3
NtRp881
(F0.17068466730954676
(dp882
tbsS"'"
g1
(g7
g3
NtRp883
(F0.021215043394406944
(dp884
tbsS'f'
g1
(g7
g3
NtRp885
(F0.0048216007714561235
(dp886
tbsS'i'
g1
(g7
g3
NtRp887
(F0.045323047251687558
(dp888
tbsS'l'
g1
(g7
g3
NtRp889
(F0.0028929604628736743
(dp890
tbsS'o'
g1
(g7
g3
NtRp891
(F0.59112825458052076
(dp892
tbsS's'
g1
(g7
g3
NtRp893
(F0.089681774349083893
(dp894
tbsS't'
g1
(g7
g3
NtRp895
(F0.036644165863066541
(dp896
tbsS'w'
g1
(g7
g3
NtRp897
(F0.009643201542912247
(dp898
tbstbstbsS'x'
g1
(g7
g3
NtRp899
(g9
(dp900
S'|'
g1
(g7
g3
NtRp901
(g9
(dp902
S'a'
g1
(g7
g3
NtRp903
(F0.060606060606060608
(dp904
tbsS'c'
g1
(g7
g3
NtRp905
(F0.18181818181818182
(dp906
tbsS'e'
g1
(g7
g3
NtRp907
(F0.25
(dp908
tbsS'i'
g1
(g7
g3
NtRp909
(F0.12121212121212122
(dp910
tbsS'h'
g1
(g7
g3
NtRp911
(F0.007575757575757576
(dp912
tbsS'p'
g1
(g7
g3
NtRp913
(F0.12121212121212122
(dp914
tbsS't'
g1
(g7
g3
NtRp915
(F0.25757575757575757
(dp916
tbstbstbsS'z'
g1
(g7
g3
NtRp917
(g9
(dp918
S'|'
g1
(g7
g3
NtRp919
(g9
(dp920
S'a'
g1
(g7
g3
NtRp921
(F0.40196078431372551
(dp922
tbsS'e'
g1
(g7
g3
NtRp923
(F0.26470588235294118
(dp924
tbsS'i'
g1
(g7
g3
NtRp925
(F0.058823529411764705
(dp926
tbsS'l'
g1
(g7
g3
NtRp927
(F0.058823529411764705
(dp928
tbsS'u'
g1
(g7
g3
NtRp929
(F0.019607843137254902
(dp930
tbsS't'
g1
(g7
g3
NtRp931
(F0.0098039215686274508
(dp932
tbsS'y'
g1
(g7
g3
NtRp933
(F0.068627450980392163
(dp934
tbsS'z'
g1
(g7
g3
NtRp935
(F0.11764705882352941
(dp936
tbstbstbstbsb.